ccopy_reg
_reconstructor
p0
(cpandas.core.frame
DataFrame
p1
c__builtin__
object
p2
Ntp3
Rp4
(dp5
S'_metadata'
p6
(lp7
sS'_typ'
p8
S'dataframe'
p9
sS'_data'
p10
g0
(cpandas.core.internals
BlockManager
p11
g2
Ntp12
Rp13
((lp14
cpandas.core.indexes.base
_new_Index
p15
(cpandas.core.indexes.base
Index
p16
(dp17
S'data'
p18
cnumpy.core.multiarray
_reconstruct
p19
(cnumpy
ndarray
p20
(I0
tp21
S'b'
p22
tp23
Rp24
(I1
(I3
tp25
cnumpy
dtype
p26
(S'O8'
p27
I0
I1
tp28
Rp29
(I3
S'|'
p30
NNNI-1
I-1
I63
tp31
bI00
(lp32
S'fname'
p33
aS'label'
p34
aS'pred'
p35
atp36
bsS'name'
p37
Nstp38
Rp39
ag15
(cpandas.core.indexes.range
RangeIndex
p40
(dp41
S'start'
p42
I0
sS'step'
p43
I1
sS'stop'
p44
I352
sg37
Nstp45
Rp46
a(lp47
g19
(g20
(I0
tp48
g22
tp49
Rp50
(I1
(I3
I352
tp51
g29
I00
(lp52
cnumpy.core.multiarray
scalar
p53
(g26
(S'S63'
p54
I0
I1
tp55
Rp56
(I3
S'|'
p57
NNNI63
I1
I0
tp58
bS'Images/lapel_design_labels/9592a06c983a46f87bff42741a0fbfcc.jpg'
p59
tp60
Rp61
ag53
(g26
(S'S63'
p62
I0
I1
tp63
Rp64
(I3
S'|'
p65
NNNI63
I1
I0
tp66
bS'Images/lapel_design_labels/da39c337916b962dc52313be829fd05f.jpg'
p67
tp68
Rp69
ag53
(g26
(S'S63'
p70
I0
I1
tp71
Rp72
(I3
S'|'
p73
NNNI63
I1
I0
tp74
bS'Images/lapel_design_labels/5be0cdac02b60e67af7c039e1b496604.jpg'
p75
tp76
Rp77
ag53
(g26
(S'S63'
p78
I0
I1
tp79
Rp80
(I3
S'|'
p81
NNNI63
I1
I0
tp82
bS'Images/lapel_design_labels/7e45144e2bd09a6f01ad65fa1e52660d.jpg'
p83
tp84
Rp85
ag53
(g26
(S'S63'
p86
I0
I1
tp87
Rp88
(I3
S'|'
p89
NNNI63
I1
I0
tp90
bS'Images/lapel_design_labels/d71adc3160ab031afaed1d79228f2a8c.jpg'
p91
tp92
Rp93
ag53
(g26
(S'S63'
p94
I0
I1
tp95
Rp96
(I3
S'|'
p97
NNNI63
I1
I0
tp98
bS'Images/lapel_design_labels/ef0f44a496202c77ca8ca0301ce96391.jpg'
p99
tp100
Rp101
ag53
(g26
(S'S63'
p102
I0
I1
tp103
Rp104
(I3
S'|'
p105
NNNI63
I1
I0
tp106
bS'Images/lapel_design_labels/ebb6e1160cb78cba1b79f5bbfa4e3194.jpg'
p107
tp108
Rp109
ag53
(g26
(S'S63'
p110
I0
I1
tp111
Rp112
(I3
S'|'
p113
NNNI63
I1
I0
tp114
bS'Images/lapel_design_labels/6aa57e5db42215cd582a6070ed57b3b1.jpg'
p115
tp116
Rp117
ag53
(g26
(S'S63'
p118
I0
I1
tp119
Rp120
(I3
S'|'
p121
NNNI63
I1
I0
tp122
bS'Images/lapel_design_labels/afacaaf922d8484356725ec5c9c03c6e.jpg'
p123
tp124
Rp125
ag53
(g26
(S'S63'
p126
I0
I1
tp127
Rp128
(I3
S'|'
p129
NNNI63
I1
I0
tp130
bS'Images/lapel_design_labels/4b210608b25944a9e7a8c4b149951615.jpg'
p131
tp132
Rp133
ag53
(g26
(S'S63'
p134
I0
I1
tp135
Rp136
(I3
S'|'
p137
NNNI63
I1
I0
tp138
bS'Images/lapel_design_labels/82a07828c182971bfb0c3bc63d63a8ae.jpg'
p139
tp140
Rp141
ag53
(g26
(S'S63'
p142
I0
I1
tp143
Rp144
(I3
S'|'
p145
NNNI63
I1
I0
tp146
bS'Images/lapel_design_labels/d192f5eddb5fa3fc7e65d4a4ab9235d6.jpg'
p147
tp148
Rp149
ag53
(g26
(S'S63'
p150
I0
I1
tp151
Rp152
(I3
S'|'
p153
NNNI63
I1
I0
tp154
bS'Images/lapel_design_labels/8f2af7e028b6029073ed4854ab80fa3b.jpg'
p155
tp156
Rp157
ag53
(g26
(S'S63'
p158
I0
I1
tp159
Rp160
(I3
S'|'
p161
NNNI63
I1
I0
tp162
bS'Images/lapel_design_labels/c5c9dcd704d55fbcb993e4ff13bb4b26.jpg'
p163
tp164
Rp165
ag53
(g26
(S'S63'
p166
I0
I1
tp167
Rp168
(I3
S'|'
p169
NNNI63
I1
I0
tp170
bS'Images/lapel_design_labels/61abd90e436a4a800f48d0a6bea4267d.jpg'
p171
tp172
Rp173
ag53
(g26
(S'S63'
p174
I0
I1
tp175
Rp176
(I3
S'|'
p177
NNNI63
I1
I0
tp178
bS'Images/lapel_design_labels/43a14a7d3d84506f5e212f3994257f3c.jpg'
p179
tp180
Rp181
ag53
(g26
(S'S63'
p182
I0
I1
tp183
Rp184
(I3
S'|'
p185
NNNI63
I1
I0
tp186
bS'Images/lapel_design_labels/b353b6ba2d02f86857842bc2fbe8b9b1.jpg'
p187
tp188
Rp189
ag53
(g26
(S'S63'
p190
I0
I1
tp191
Rp192
(I3
S'|'
p193
NNNI63
I1
I0
tp194
bS'Images/lapel_design_labels/17661703d100ed53cc95ed72c7e84511.jpg'
p195
tp196
Rp197
ag53
(g26
(S'S63'
p198
I0
I1
tp199
Rp200
(I3
S'|'
p201
NNNI63
I1
I0
tp202
bS'Images/lapel_design_labels/fea278a89b665ba1320c8eb452dd967e.jpg'
p203
tp204
Rp205
ag53
(g26
(S'S63'
p206
I0
I1
tp207
Rp208
(I3
S'|'
p209
NNNI63
I1
I0
tp210
bS'Images/lapel_design_labels/4bb2886911384c9c4e0b93e123c47de5.jpg'
p211
tp212
Rp213
ag53
(g26
(S'S63'
p214
I0
I1
tp215
Rp216
(I3
S'|'
p217
NNNI63
I1
I0
tp218
bS'Images/lapel_design_labels/691b391ee696d551e3a633b1d9f0a448.jpg'
p219
tp220
Rp221
ag53
(g26
(S'S63'
p222
I0
I1
tp223
Rp224
(I3
S'|'
p225
NNNI63
I1
I0
tp226
bS'Images/lapel_design_labels/df0240b1c050267ae8d2ede3439f9073.jpg'
p227
tp228
Rp229
ag53
(g26
(S'S63'
p230
I0
I1
tp231
Rp232
(I3
S'|'
p233
NNNI63
I1
I0
tp234
bS'Images/lapel_design_labels/ee8a2c50ed052d80d312af13364e915f.jpg'
p235
tp236
Rp237
ag53
(g26
(S'S63'
p238
I0
I1
tp239
Rp240
(I3
S'|'
p241
NNNI63
I1
I0
tp242
bS'Images/lapel_design_labels/6bac1162e644f13f56dbdc3e34f8c2c2.jpg'
p243
tp244
Rp245
ag53
(g26
(S'S63'
p246
I0
I1
tp247
Rp248
(I3
S'|'
p249
NNNI63
I1
I0
tp250
bS'Images/lapel_design_labels/d6a7e562f9eb89ad03f71a120895b156.jpg'
p251
tp252
Rp253
ag53
(g26
(S'S63'
p254
I0
I1
tp255
Rp256
(I3
S'|'
p257
NNNI63
I1
I0
tp258
bS'Images/lapel_design_labels/8f0113303bb705220409262e5586cd2d.jpg'
p259
tp260
Rp261
ag53
(g26
(S'S63'
p262
I0
I1
tp263
Rp264
(I3
S'|'
p265
NNNI63
I1
I0
tp266
bS'Images/lapel_design_labels/125996e887e8baed2b0a503de90a6475.jpg'
p267
tp268
Rp269
ag53
(g26
(S'S63'
p270
I0
I1
tp271
Rp272
(I3
S'|'
p273
NNNI63
I1
I0
tp274
bS'Images/lapel_design_labels/113d5f015e4f8c78f1d0a3855a1a3ab1.jpg'
p275
tp276
Rp277
ag53
(g26
(S'S63'
p278
I0
I1
tp279
Rp280
(I3
S'|'
p281
NNNI63
I1
I0
tp282
bS'Images/lapel_design_labels/d5a959de4a80d0e3754391ebce23eb06.jpg'
p283
tp284
Rp285
ag53
(g26
(S'S63'
p286
I0
I1
tp287
Rp288
(I3
S'|'
p289
NNNI63
I1
I0
tp290
bS'Images/lapel_design_labels/cc349d792ff262cade7b773669fec221.jpg'
p291
tp292
Rp293
ag53
(g26
(S'S63'
p294
I0
I1
tp295
Rp296
(I3
S'|'
p297
NNNI63
I1
I0
tp298
bS'Images/lapel_design_labels/097b34f6c55b5b2cf3389386068c7509.jpg'
p299
tp300
Rp301
ag53
(g26
(S'S63'
p302
I0
I1
tp303
Rp304
(I3
S'|'
p305
NNNI63
I1
I0
tp306
bS'Images/lapel_design_labels/4d0ea1b07183ef4bf2a79380b234f320.jpg'
p307
tp308
Rp309
ag53
(g26
(S'S63'
p310
I0
I1
tp311
Rp312
(I3
S'|'
p313
NNNI63
I1
I0
tp314
bS'Images/lapel_design_labels/918f6109c69655eccbda1d683d5c1072.jpg'
p315
tp316
Rp317
ag53
(g26
(S'S63'
p318
I0
I1
tp319
Rp320
(I3
S'|'
p321
NNNI63
I1
I0
tp322
bS'Images/lapel_design_labels/1f6cb394029ca52a53bcb2cdf45f52da.jpg'
p323
tp324
Rp325
ag53
(g26
(S'S63'
p326
I0
I1
tp327
Rp328
(I3
S'|'
p329
NNNI63
I1
I0
tp330
bS'Images/lapel_design_labels/854e541d10b803beab090dda7e6db3cd.jpg'
p331
tp332
Rp333
ag53
(g26
(S'S63'
p334
I0
I1
tp335
Rp336
(I3
S'|'
p337
NNNI63
I1
I0
tp338
bS'Images/lapel_design_labels/594be714b2a91ad3138b155d7d214cb4.jpg'
p339
tp340
Rp341
ag53
(g26
(S'S63'
p342
I0
I1
tp343
Rp344
(I3
S'|'
p345
NNNI63
I1
I0
tp346
bS'Images/lapel_design_labels/e3c454c5b2799f98b830ccbdcf0eef03.jpg'
p347
tp348
Rp349
ag53
(g26
(S'S63'
p350
I0
I1
tp351
Rp352
(I3
S'|'
p353
NNNI63
I1
I0
tp354
bS'Images/lapel_design_labels/38dd5728951da934c1261f22e422c996.jpg'
p355
tp356
Rp357
ag53
(g26
(S'S63'
p358
I0
I1
tp359
Rp360
(I3
S'|'
p361
NNNI63
I1
I0
tp362
bS'Images/lapel_design_labels/6b02497ff15a5aedc98a9703c5cc4781.jpg'
p363
tp364
Rp365
ag53
(g26
(S'S63'
p366
I0
I1
tp367
Rp368
(I3
S'|'
p369
NNNI63
I1
I0
tp370
bS'Images/lapel_design_labels/38964206e9751a01a862a5204f59b553.jpg'
p371
tp372
Rp373
ag53
(g26
(S'S63'
p374
I0
I1
tp375
Rp376
(I3
S'|'
p377
NNNI63
I1
I0
tp378
bS'Images/lapel_design_labels/b4dc02a4d85f9fedd250f4e4ad6a9699.jpg'
p379
tp380
Rp381
ag53
(g26
(S'S63'
p382
I0
I1
tp383
Rp384
(I3
S'|'
p385
NNNI63
I1
I0
tp386
bS'Images/lapel_design_labels/61450ecb68f7b45adae013991db7fb14.jpg'
p387
tp388
Rp389
ag53
(g26
(S'S63'
p390
I0
I1
tp391
Rp392
(I3
S'|'
p393
NNNI63
I1
I0
tp394
bS'Images/lapel_design_labels/297c74c492d83e88a4217936b7ab0af6.jpg'
p395
tp396
Rp397
ag53
(g26
(S'S63'
p398
I0
I1
tp399
Rp400
(I3
S'|'
p401
NNNI63
I1
I0
tp402
bS'Images/lapel_design_labels/ae986aa33c185139d1feb9a34b4bac4a.jpg'
p403
tp404
Rp405
ag53
(g26
(S'S63'
p406
I0
I1
tp407
Rp408
(I3
S'|'
p409
NNNI63
I1
I0
tp410
bS'Images/lapel_design_labels/ec68a8abd9ba20d2bb6c0ed6eb3e2e8f.jpg'
p411
tp412
Rp413
ag53
(g26
(S'S63'
p414
I0
I1
tp415
Rp416
(I3
S'|'
p417
NNNI63
I1
I0
tp418
bS'Images/lapel_design_labels/29ecabeb714a2f620dece1f72087685d.jpg'
p419
tp420
Rp421
ag53
(g26
(S'S63'
p422
I0
I1
tp423
Rp424
(I3
S'|'
p425
NNNI63
I1
I0
tp426
bS'Images/lapel_design_labels/4e91b7faf636a89185c85e3c23979766.jpg'
p427
tp428
Rp429
ag53
(g26
(S'S63'
p430
I0
I1
tp431
Rp432
(I3
S'|'
p433
NNNI63
I1
I0
tp434
bS'Images/lapel_design_labels/68b7f39d0f65b439c4fbd5f22a0d6dcc.jpg'
p435
tp436
Rp437
ag53
(g26
(S'S63'
p438
I0
I1
tp439
Rp440
(I3
S'|'
p441
NNNI63
I1
I0
tp442
bS'Images/lapel_design_labels/82459a61a721b6fbaff229ce640057c9.jpg'
p443
tp444
Rp445
ag53
(g26
(S'S63'
p446
I0
I1
tp447
Rp448
(I3
S'|'
p449
NNNI63
I1
I0
tp450
bS'Images/lapel_design_labels/1480ad683ccd4da5f60076a73a3d3e55.jpg'
p451
tp452
Rp453
ag53
(g26
(S'S63'
p454
I0
I1
tp455
Rp456
(I3
S'|'
p457
NNNI63
I1
I0
tp458
bS'Images/lapel_design_labels/cfd62cbbea228ebf43a8d97488c531e0.jpg'
p459
tp460
Rp461
ag53
(g26
(S'S63'
p462
I0
I1
tp463
Rp464
(I3
S'|'
p465
NNNI63
I1
I0
tp466
bS'Images/lapel_design_labels/99110426b59391437db1be42a0cb3e11.jpg'
p467
tp468
Rp469
ag53
(g26
(S'S63'
p470
I0
I1
tp471
Rp472
(I3
S'|'
p473
NNNI63
I1
I0
tp474
bS'Images/lapel_design_labels/13fc63950d043cb618e1f721819bb847.jpg'
p475
tp476
Rp477
ag53
(g26
(S'S63'
p478
I0
I1
tp479
Rp480
(I3
S'|'
p481
NNNI63
I1
I0
tp482
bS'Images/lapel_design_labels/c20c594fd2007011434e9a3638671f35.jpg'
p483
tp484
Rp485
ag53
(g26
(S'S63'
p486
I0
I1
tp487
Rp488
(I3
S'|'
p489
NNNI63
I1
I0
tp490
bS'Images/lapel_design_labels/74ab02364b8c6b0ae6cfaf7e8932fa49.jpg'
p491
tp492
Rp493
ag53
(g26
(S'S63'
p494
I0
I1
tp495
Rp496
(I3
S'|'
p497
NNNI63
I1
I0
tp498
bS'Images/lapel_design_labels/e023ded0ed87f39a5b2514bf1a28a1db.jpg'
p499
tp500
Rp501
ag53
(g26
(S'S63'
p502
I0
I1
tp503
Rp504
(I3
S'|'
p505
NNNI63
I1
I0
tp506
bS'Images/lapel_design_labels/ef1d783fc9ead0d642e30e2b7968992e.jpg'
p507
tp508
Rp509
ag53
(g26
(S'S63'
p510
I0
I1
tp511
Rp512
(I3
S'|'
p513
NNNI63
I1
I0
tp514
bS'Images/lapel_design_labels/f1b3414afd150781201b8828459630ba.jpg'
p515
tp516
Rp517
ag53
(g26
(S'S63'
p518
I0
I1
tp519
Rp520
(I3
S'|'
p521
NNNI63
I1
I0
tp522
bS'Images/lapel_design_labels/25962719c1aa8b0849122788d61df9a5.jpg'
p523
tp524
Rp525
ag53
(g26
(S'S63'
p526
I0
I1
tp527
Rp528
(I3
S'|'
p529
NNNI63
I1
I0
tp530
bS'Images/lapel_design_labels/5282442153fc6c3ef5fce763b1338870.jpg'
p531
tp532
Rp533
ag53
(g26
(S'S63'
p534
I0
I1
tp535
Rp536
(I3
S'|'
p537
NNNI63
I1
I0
tp538
bS'Images/lapel_design_labels/76175270a86e27c96cc762c3a5579ef7.jpg'
p539
tp540
Rp541
ag53
(g26
(S'S63'
p542
I0
I1
tp543
Rp544
(I3
S'|'
p545
NNNI63
I1
I0
tp546
bS'Images/lapel_design_labels/4f9fba53628f675ec278142ccd8bf686.jpg'
p547
tp548
Rp549
ag53
(g26
(S'S63'
p550
I0
I1
tp551
Rp552
(I3
S'|'
p553
NNNI63
I1
I0
tp554
bS'Images/lapel_design_labels/a1d19295601b575eb35acc7ccde9ba7d.jpg'
p555
tp556
Rp557
ag53
(g26
(S'S63'
p558
I0
I1
tp559
Rp560
(I3
S'|'
p561
NNNI63
I1
I0
tp562
bS'Images/lapel_design_labels/abcad4555ae4d2e1441965793df7bd11.jpg'
p563
tp564
Rp565
ag53
(g26
(S'S63'
p566
I0
I1
tp567
Rp568
(I3
S'|'
p569
NNNI63
I1
I0
tp570
bS'Images/lapel_design_labels/e16e0a2bca5abacaea34059943b2c3f7.jpg'
p571
tp572
Rp573
ag53
(g26
(S'S63'
p574
I0
I1
tp575
Rp576
(I3
S'|'
p577
NNNI63
I1
I0
tp578
bS'Images/lapel_design_labels/332cf1ecf59d122dfa5e55131172a707.jpg'
p579
tp580
Rp581
ag53
(g26
(S'S63'
p582
I0
I1
tp583
Rp584
(I3
S'|'
p585
NNNI63
I1
I0
tp586
bS'Images/lapel_design_labels/df7672295198b02fd906fb84be0be4c9.jpg'
p587
tp588
Rp589
ag53
(g26
(S'S63'
p590
I0
I1
tp591
Rp592
(I3
S'|'
p593
NNNI63
I1
I0
tp594
bS'Images/lapel_design_labels/b431133873fa5e2989dd7e6755f594e0.jpg'
p595
tp596
Rp597
ag53
(g26
(S'S63'
p598
I0
I1
tp599
Rp600
(I3
S'|'
p601
NNNI63
I1
I0
tp602
bS'Images/lapel_design_labels/a578bdd1ca8e9c4f2fbbfd5114ccd3d7.jpg'
p603
tp604
Rp605
ag53
(g26
(S'S63'
p606
I0
I1
tp607
Rp608
(I3
S'|'
p609
NNNI63
I1
I0
tp610
bS'Images/lapel_design_labels/34714333ae4755657b37f102cf81f53f.jpg'
p611
tp612
Rp613
ag53
(g26
(S'S63'
p614
I0
I1
tp615
Rp616
(I3
S'|'
p617
NNNI63
I1
I0
tp618
bS'Images/lapel_design_labels/28e866facbc5c8b8acb8bad0c2b741ab.jpg'
p619
tp620
Rp621
ag53
(g26
(S'S63'
p622
I0
I1
tp623
Rp624
(I3
S'|'
p625
NNNI63
I1
I0
tp626
bS'Images/lapel_design_labels/8d893b9743561bc4f7d25e8fe5d9abfa.jpg'
p627
tp628
Rp629
ag53
(g26
(S'S63'
p630
I0
I1
tp631
Rp632
(I3
S'|'
p633
NNNI63
I1
I0
tp634
bS'Images/lapel_design_labels/5d832fcc986c587e59774b37ffaaaaf5.jpg'
p635
tp636
Rp637
ag53
(g26
(S'S63'
p638
I0
I1
tp639
Rp640
(I3
S'|'
p641
NNNI63
I1
I0
tp642
bS'Images/lapel_design_labels/e3d6bad8e51580390bc31004dd023192.jpg'
p643
tp644
Rp645
ag53
(g26
(S'S63'
p646
I0
I1
tp647
Rp648
(I3
S'|'
p649
NNNI63
I1
I0
tp650
bS'Images/lapel_design_labels/c5b790809d9792ac63ff32a148a8a600.jpg'
p651
tp652
Rp653
ag53
(g26
(S'S63'
p654
I0
I1
tp655
Rp656
(I3
S'|'
p657
NNNI63
I1
I0
tp658
bS'Images/lapel_design_labels/7a75f592b76c73c26de5f1e573062235.jpg'
p659
tp660
Rp661
ag53
(g26
(S'S63'
p662
I0
I1
tp663
Rp664
(I3
S'|'
p665
NNNI63
I1
I0
tp666
bS'Images/lapel_design_labels/90020520d5c0ed0f03f77bc3eef63825.jpg'
p667
tp668
Rp669
ag53
(g26
(S'S63'
p670
I0
I1
tp671
Rp672
(I3
S'|'
p673
NNNI63
I1
I0
tp674
bS'Images/lapel_design_labels/6414525b0cd82bd56863f3b47bd639c9.jpg'
p675
tp676
Rp677
ag53
(g26
(S'S63'
p678
I0
I1
tp679
Rp680
(I3
S'|'
p681
NNNI63
I1
I0
tp682
bS'Images/lapel_design_labels/8786515d39bab5b20aa191a62e4e938f.jpg'
p683
tp684
Rp685
ag53
(g26
(S'S63'
p686
I0
I1
tp687
Rp688
(I3
S'|'
p689
NNNI63
I1
I0
tp690
bS'Images/lapel_design_labels/6630cef4f04ad8b4ef14727305d2fff9.jpg'
p691
tp692
Rp693
ag53
(g26
(S'S63'
p694
I0
I1
tp695
Rp696
(I3
S'|'
p697
NNNI63
I1
I0
tp698
bS'Images/lapel_design_labels/1aafd1e5beb03dd166420f02f4435692.jpg'
p699
tp700
Rp701
ag53
(g26
(S'S63'
p702
I0
I1
tp703
Rp704
(I3
S'|'
p705
NNNI63
I1
I0
tp706
bS'Images/lapel_design_labels/959ede36abe7ac0bef331702c034499b.jpg'
p707
tp708
Rp709
ag53
(g26
(S'S63'
p710
I0
I1
tp711
Rp712
(I3
S'|'
p713
NNNI63
I1
I0
tp714
bS'Images/lapel_design_labels/d97b306dce0f36eb3d0cec6a260b5d28.jpg'
p715
tp716
Rp717
ag53
(g26
(S'S63'
p718
I0
I1
tp719
Rp720
(I3
S'|'
p721
NNNI63
I1
I0
tp722
bS'Images/lapel_design_labels/fc86149ca6f54543bf9261e944d39594.jpg'
p723
tp724
Rp725
ag53
(g26
(S'S63'
p726
I0
I1
tp727
Rp728
(I3
S'|'
p729
NNNI63
I1
I0
tp730
bS'Images/lapel_design_labels/f4593f676b6475c3a22c7604656dc421.jpg'
p731
tp732
Rp733
ag53
(g26
(S'S63'
p734
I0
I1
tp735
Rp736
(I3
S'|'
p737
NNNI63
I1
I0
tp738
bS'Images/lapel_design_labels/9005c9cbaa65527261b74db5ca536544.jpg'
p739
tp740
Rp741
ag53
(g26
(S'S63'
p742
I0
I1
tp743
Rp744
(I3
S'|'
p745
NNNI63
I1
I0
tp746
bS'Images/lapel_design_labels/14e98781edc2c72a2c0de81e8b35ce89.jpg'
p747
tp748
Rp749
ag53
(g26
(S'S63'
p750
I0
I1
tp751
Rp752
(I3
S'|'
p753
NNNI63
I1
I0
tp754
bS'Images/lapel_design_labels/a837ef8ed09caffe416dd4e67a7bbe8a.jpg'
p755
tp756
Rp757
ag53
(g26
(S'S63'
p758
I0
I1
tp759
Rp760
(I3
S'|'
p761
NNNI63
I1
I0
tp762
bS'Images/lapel_design_labels/67cd4b0c83543fc532a8fa1b5382aace.jpg'
p763
tp764
Rp765
ag53
(g26
(S'S63'
p766
I0
I1
tp767
Rp768
(I3
S'|'
p769
NNNI63
I1
I0
tp770
bS'Images/lapel_design_labels/ce07081d493f1c365088d50b353c0473.jpg'
p771
tp772
Rp773
ag53
(g26
(S'S63'
p774
I0
I1
tp775
Rp776
(I3
S'|'
p777
NNNI63
I1
I0
tp778
bS'Images/lapel_design_labels/dae355f6e2ba8b525bdf689909348963.jpg'
p779
tp780
Rp781
ag53
(g26
(S'S63'
p782
I0
I1
tp783
Rp784
(I3
S'|'
p785
NNNI63
I1
I0
tp786
bS'Images/lapel_design_labels/020fbccd28bb497e3cbbe27d19088178.jpg'
p787
tp788
Rp789
ag53
(g26
(S'S63'
p790
I0
I1
tp791
Rp792
(I3
S'|'
p793
NNNI63
I1
I0
tp794
bS'Images/lapel_design_labels/09255c6a7e35ca163d3205e8fccf2af0.jpg'
p795
tp796
Rp797
ag53
(g26
(S'S63'
p798
I0
I1
tp799
Rp800
(I3
S'|'
p801
NNNI63
I1
I0
tp802
bS'Images/lapel_design_labels/0599c8d06b9077f66e2e39ff5e8134a5.jpg'
p803
tp804
Rp805
ag53
(g26
(S'S63'
p806
I0
I1
tp807
Rp808
(I3
S'|'
p809
NNNI63
I1
I0
tp810
bS'Images/lapel_design_labels/05567eed4c728fad067198156a3ccd5e.jpg'
p811
tp812
Rp813
ag53
(g26
(S'S63'
p814
I0
I1
tp815
Rp816
(I3
S'|'
p817
NNNI63
I1
I0
tp818
bS'Images/lapel_design_labels/84534211d0240aba06c267870ebb1501.jpg'
p819
tp820
Rp821
ag53
(g26
(S'S63'
p822
I0
I1
tp823
Rp824
(I3
S'|'
p825
NNNI63
I1
I0
tp826
bS'Images/lapel_design_labels/a56ce31214e115c371c8b516b6959848.jpg'
p827
tp828
Rp829
ag53
(g26
(S'S63'
p830
I0
I1
tp831
Rp832
(I3
S'|'
p833
NNNI63
I1
I0
tp834
bS'Images/lapel_design_labels/d9816e5abc1e7edcd0b60b80e4096b84.jpg'
p835
tp836
Rp837
ag53
(g26
(S'S63'
p838
I0
I1
tp839
Rp840
(I3
S'|'
p841
NNNI63
I1
I0
tp842
bS'Images/lapel_design_labels/7c6b41a0c74761283631d6518d3ed879.jpg'
p843
tp844
Rp845
ag53
(g26
(S'S63'
p846
I0
I1
tp847
Rp848
(I3
S'|'
p849
NNNI63
I1
I0
tp850
bS'Images/lapel_design_labels/4a95514c10a84a305ce8f45f93cb416f.jpg'
p851
tp852
Rp853
ag53
(g26
(S'S63'
p854
I0
I1
tp855
Rp856
(I3
S'|'
p857
NNNI63
I1
I0
tp858
bS'Images/lapel_design_labels/11e4b8c171a476fd7f8e025ab9f8e036.jpg'
p859
tp860
Rp861
ag53
(g26
(S'S63'
p862
I0
I1
tp863
Rp864
(I3
S'|'
p865
NNNI63
I1
I0
tp866
bS'Images/lapel_design_labels/1f34a15701dfef1f11a5afbcda81cf17.jpg'
p867
tp868
Rp869
ag53
(g26
(S'S63'
p870
I0
I1
tp871
Rp872
(I3
S'|'
p873
NNNI63
I1
I0
tp874
bS'Images/lapel_design_labels/99008e0ad4085ab8b8799e5d88ce2312.jpg'
p875
tp876
Rp877
ag53
(g26
(S'S63'
p878
I0
I1
tp879
Rp880
(I3
S'|'
p881
NNNI63
I1
I0
tp882
bS'Images/lapel_design_labels/ed76cf46a2edd784e7f012b251dbcf13.jpg'
p883
tp884
Rp885
ag53
(g26
(S'S63'
p886
I0
I1
tp887
Rp888
(I3
S'|'
p889
NNNI63
I1
I0
tp890
bS'Images/lapel_design_labels/9bd18edfd990f13b8bd759ea9edfbd7a.jpg'
p891
tp892
Rp893
ag53
(g26
(S'S63'
p894
I0
I1
tp895
Rp896
(I3
S'|'
p897
NNNI63
I1
I0
tp898
bS'Images/lapel_design_labels/c87a246f84ed9462b8eaf91ce00d38e0.jpg'
p899
tp900
Rp901
ag53
(g26
(S'S63'
p902
I0
I1
tp903
Rp904
(I3
S'|'
p905
NNNI63
I1
I0
tp906
bS'Images/lapel_design_labels/c17eaebffe80f1c02cea1a02646882aa.jpg'
p907
tp908
Rp909
ag53
(g26
(S'S63'
p910
I0
I1
tp911
Rp912
(I3
S'|'
p913
NNNI63
I1
I0
tp914
bS'Images/lapel_design_labels/adf09dc931fe8c8472987d7d9d82e596.jpg'
p915
tp916
Rp917
ag53
(g26
(S'S63'
p918
I0
I1
tp919
Rp920
(I3
S'|'
p921
NNNI63
I1
I0
tp922
bS'Images/lapel_design_labels/80ccb2349a751f565a197a8f6efa9218.jpg'
p923
tp924
Rp925
ag53
(g26
(S'S63'
p926
I0
I1
tp927
Rp928
(I3
S'|'
p929
NNNI63
I1
I0
tp930
bS'Images/lapel_design_labels/47f8a8995aba16b3b689cd0600a4ca23.jpg'
p931
tp932
Rp933
ag53
(g26
(S'S63'
p934
I0
I1
tp935
Rp936
(I3
S'|'
p937
NNNI63
I1
I0
tp938
bS'Images/lapel_design_labels/dd9c47110ed132bab69eb835581b20f2.jpg'
p939
tp940
Rp941
ag53
(g26
(S'S63'
p942
I0
I1
tp943
Rp944
(I3
S'|'
p945
NNNI63
I1
I0
tp946
bS'Images/lapel_design_labels/dc3fedca7123b30b1232174f938e2426.jpg'
p947
tp948
Rp949
ag53
(g26
(S'S63'
p950
I0
I1
tp951
Rp952
(I3
S'|'
p953
NNNI63
I1
I0
tp954
bS'Images/lapel_design_labels/5540a8e25a242ec2c01fc6e1bcc60484.jpg'
p955
tp956
Rp957
ag53
(g26
(S'S63'
p958
I0
I1
tp959
Rp960
(I3
S'|'
p961
NNNI63
I1
I0
tp962
bS'Images/lapel_design_labels/8a9667a66929edcb430684dbb7d61aa6.jpg'
p963
tp964
Rp965
ag53
(g26
(S'S63'
p966
I0
I1
tp967
Rp968
(I3
S'|'
p969
NNNI63
I1
I0
tp970
bS'Images/lapel_design_labels/f0d9dc737cef811188287067c6de8819.jpg'
p971
tp972
Rp973
ag53
(g26
(S'S63'
p974
I0
I1
tp975
Rp976
(I3
S'|'
p977
NNNI63
I1
I0
tp978
bS'Images/lapel_design_labels/b43f52a370a67d7c6f6d60b69cdcd971.jpg'
p979
tp980
Rp981
ag53
(g26
(S'S63'
p982
I0
I1
tp983
Rp984
(I3
S'|'
p985
NNNI63
I1
I0
tp986
bS'Images/lapel_design_labels/89b59db3d0b8644d1bbef81ee9b059b8.jpg'
p987
tp988
Rp989
ag53
(g26
(S'S63'
p990
I0
I1
tp991
Rp992
(I3
S'|'
p993
NNNI63
I1
I0
tp994
bS'Images/lapel_design_labels/09d4b71647facdd11de85b334f380931.jpg'
p995
tp996
Rp997
ag53
(g26
(S'S63'
p998
I0
I1
tp999
Rp1000
(I3
S'|'
p1001
NNNI63
I1
I0
tp1002
bS'Images/lapel_design_labels/28e55b4c82241ee53e15227a15b8c49b.jpg'
p1003
tp1004
Rp1005
ag53
(g26
(S'S63'
p1006
I0
I1
tp1007
Rp1008
(I3
S'|'
p1009
NNNI63
I1
I0
tp1010
bS'Images/lapel_design_labels/9f74384a63262ffee2822bdcc9881a80.jpg'
p1011
tp1012
Rp1013
ag53
(g26
(S'S63'
p1014
I0
I1
tp1015
Rp1016
(I3
S'|'
p1017
NNNI63
I1
I0
tp1018
bS'Images/lapel_design_labels/944b52430e10b1969a2fb813e355dd21.jpg'
p1019
tp1020
Rp1021
ag53
(g26
(S'S63'
p1022
I0
I1
tp1023
Rp1024
(I3
S'|'
p1025
NNNI63
I1
I0
tp1026
bS'Images/lapel_design_labels/a8342de377eb66af72bf50d85f923f5d.jpg'
p1027
tp1028
Rp1029
ag53
(g26
(S'S63'
p1030
I0
I1
tp1031
Rp1032
(I3
S'|'
p1033
NNNI63
I1
I0
tp1034
bS'Images/lapel_design_labels/c16f8ea405077cc5f139472d970822ba.jpg'
p1035
tp1036
Rp1037
ag53
(g26
(S'S63'
p1038
I0
I1
tp1039
Rp1040
(I3
S'|'
p1041
NNNI63
I1
I0
tp1042
bS'Images/lapel_design_labels/dd47f6f22aa90dbb1386d2cf640bff25.jpg'
p1043
tp1044
Rp1045
ag53
(g26
(S'S63'
p1046
I0
I1
tp1047
Rp1048
(I3
S'|'
p1049
NNNI63
I1
I0
tp1050
bS'Images/lapel_design_labels/7d942c1a5b23c4d3d09d8acdd21cec57.jpg'
p1051
tp1052
Rp1053
ag53
(g26
(S'S63'
p1054
I0
I1
tp1055
Rp1056
(I3
S'|'
p1057
NNNI63
I1
I0
tp1058
bS'Images/lapel_design_labels/fe61df23e02d5c10608222e964f43dcc.jpg'
p1059
tp1060
Rp1061
ag53
(g26
(S'S63'
p1062
I0
I1
tp1063
Rp1064
(I3
S'|'
p1065
NNNI63
I1
I0
tp1066
bS'Images/lapel_design_labels/c56840c4d1d8ae3d0b3fad06a166d318.jpg'
p1067
tp1068
Rp1069
ag53
(g26
(S'S63'
p1070
I0
I1
tp1071
Rp1072
(I3
S'|'
p1073
NNNI63
I1
I0
tp1074
bS'Images/lapel_design_labels/4bc2732f85f60be1c09113b0d8b2f6a5.jpg'
p1075
tp1076
Rp1077
ag53
(g26
(S'S63'
p1078
I0
I1
tp1079
Rp1080
(I3
S'|'
p1081
NNNI63
I1
I0
tp1082
bS'Images/lapel_design_labels/4d61679e4d5a54e3ad16dd990b633367.jpg'
p1083
tp1084
Rp1085
ag53
(g26
(S'S63'
p1086
I0
I1
tp1087
Rp1088
(I3
S'|'
p1089
NNNI63
I1
I0
tp1090
bS'Images/lapel_design_labels/9dfa2b570e6c24acc57a52b27d94d46f.jpg'
p1091
tp1092
Rp1093
ag53
(g26
(S'S63'
p1094
I0
I1
tp1095
Rp1096
(I3
S'|'
p1097
NNNI63
I1
I0
tp1098
bS'Images/lapel_design_labels/321d9c18d7491c109917b7cd6358c692.jpg'
p1099
tp1100
Rp1101
ag53
(g26
(S'S63'
p1102
I0
I1
tp1103
Rp1104
(I3
S'|'
p1105
NNNI63
I1
I0
tp1106
bS'Images/lapel_design_labels/ce9cc3f7cbf447713d02849cd90b3749.jpg'
p1107
tp1108
Rp1109
ag53
(g26
(S'S63'
p1110
I0
I1
tp1111
Rp1112
(I3
S'|'
p1113
NNNI63
I1
I0
tp1114
bS'Images/lapel_design_labels/b411ac62954a6496725595c6e30a68c3.jpg'
p1115
tp1116
Rp1117
ag53
(g26
(S'S63'
p1118
I0
I1
tp1119
Rp1120
(I3
S'|'
p1121
NNNI63
I1
I0
tp1122
bS'Images/lapel_design_labels/a49426ae83ae956771a091ee4be0cf0d.jpg'
p1123
tp1124
Rp1125
ag53
(g26
(S'S63'
p1126
I0
I1
tp1127
Rp1128
(I3
S'|'
p1129
NNNI63
I1
I0
tp1130
bS'Images/lapel_design_labels/4fc8120e5d45916cf7b7e4be455d0c1d.jpg'
p1131
tp1132
Rp1133
ag53
(g26
(S'S63'
p1134
I0
I1
tp1135
Rp1136
(I3
S'|'
p1137
NNNI63
I1
I0
tp1138
bS'Images/lapel_design_labels/6d93f008aa1301047f2f547cd8e9aba6.jpg'
p1139
tp1140
Rp1141
ag53
(g26
(S'S63'
p1142
I0
I1
tp1143
Rp1144
(I3
S'|'
p1145
NNNI63
I1
I0
tp1146
bS'Images/lapel_design_labels/e1d4351223936b314325bd4040e415c7.jpg'
p1147
tp1148
Rp1149
ag53
(g26
(S'S63'
p1150
I0
I1
tp1151
Rp1152
(I3
S'|'
p1153
NNNI63
I1
I0
tp1154
bS'Images/lapel_design_labels/2812b54f35b44fb43dce810b37cbdb7e.jpg'
p1155
tp1156
Rp1157
ag53
(g26
(S'S63'
p1158
I0
I1
tp1159
Rp1160
(I3
S'|'
p1161
NNNI63
I1
I0
tp1162
bS'Images/lapel_design_labels/038f87ea514e2e2cae24cc152b520ec8.jpg'
p1163
tp1164
Rp1165
ag53
(g26
(S'S63'
p1166
I0
I1
tp1167
Rp1168
(I3
S'|'
p1169
NNNI63
I1
I0
tp1170
bS'Images/lapel_design_labels/6ff361327fbeab5712394d6e39a47c04.jpg'
p1171
tp1172
Rp1173
ag53
(g26
(S'S63'
p1174
I0
I1
tp1175
Rp1176
(I3
S'|'
p1177
NNNI63
I1
I0
tp1178
bS'Images/lapel_design_labels/baaba0ceda30dbd79614a7a4033d69dd.jpg'
p1179
tp1180
Rp1181
ag53
(g26
(S'S63'
p1182
I0
I1
tp1183
Rp1184
(I3
S'|'
p1185
NNNI63
I1
I0
tp1186
bS'Images/lapel_design_labels/d4ffb0abde46dc3fc5752ac4c39d972e.jpg'
p1187
tp1188
Rp1189
ag53
(g26
(S'S63'
p1190
I0
I1
tp1191
Rp1192
(I3
S'|'
p1193
NNNI63
I1
I0
tp1194
bS'Images/lapel_design_labels/9f09e0d31b1998439d742498fddaac37.jpg'
p1195
tp1196
Rp1197
ag53
(g26
(S'S63'
p1198
I0
I1
tp1199
Rp1200
(I3
S'|'
p1201
NNNI63
I1
I0
tp1202
bS'Images/lapel_design_labels/e93064e3de64b36dc225eac760fc711e.jpg'
p1203
tp1204
Rp1205
ag53
(g26
(S'S63'
p1206
I0
I1
tp1207
Rp1208
(I3
S'|'
p1209
NNNI63
I1
I0
tp1210
bS'Images/lapel_design_labels/8be67d17954401b59aa85e3707a811c6.jpg'
p1211
tp1212
Rp1213
ag53
(g26
(S'S63'
p1214
I0
I1
tp1215
Rp1216
(I3
S'|'
p1217
NNNI63
I1
I0
tp1218
bS'Images/lapel_design_labels/0db4539c21ce4fbd31b5280ce21418b7.jpg'
p1219
tp1220
Rp1221
ag53
(g26
(S'S63'
p1222
I0
I1
tp1223
Rp1224
(I3
S'|'
p1225
NNNI63
I1
I0
tp1226
bS'Images/lapel_design_labels/04f6703c12076b436b4eb1de11ec0ba0.jpg'
p1227
tp1228
Rp1229
ag53
(g26
(S'S63'
p1230
I0
I1
tp1231
Rp1232
(I3
S'|'
p1233
NNNI63
I1
I0
tp1234
bS'Images/lapel_design_labels/e413b13e16e8bb51dcf90fe12134b279.jpg'
p1235
tp1236
Rp1237
ag53
(g26
(S'S63'
p1238
I0
I1
tp1239
Rp1240
(I3
S'|'
p1241
NNNI63
I1
I0
tp1242
bS'Images/lapel_design_labels/37a2df7b545b675648e6151753e0b44c.jpg'
p1243
tp1244
Rp1245
ag53
(g26
(S'S63'
p1246
I0
I1
tp1247
Rp1248
(I3
S'|'
p1249
NNNI63
I1
I0
tp1250
bS'Images/lapel_design_labels/27370be2117d63a7833acef7c8654feb.jpg'
p1251
tp1252
Rp1253
ag53
(g26
(S'S63'
p1254
I0
I1
tp1255
Rp1256
(I3
S'|'
p1257
NNNI63
I1
I0
tp1258
bS'Images/lapel_design_labels/61672b99f18b601ae1f7a2c70fe26ca4.jpg'
p1259
tp1260
Rp1261
ag53
(g26
(S'S63'
p1262
I0
I1
tp1263
Rp1264
(I3
S'|'
p1265
NNNI63
I1
I0
tp1266
bS'Images/lapel_design_labels/a4440c1997cdbc024b1d5fc8fc7b683b.jpg'
p1267
tp1268
Rp1269
ag53
(g26
(S'S63'
p1270
I0
I1
tp1271
Rp1272
(I3
S'|'
p1273
NNNI63
I1
I0
tp1274
bS'Images/lapel_design_labels/cc22b472d57347f195033ac3fc143d23.jpg'
p1275
tp1276
Rp1277
ag53
(g26
(S'S63'
p1278
I0
I1
tp1279
Rp1280
(I3
S'|'
p1281
NNNI63
I1
I0
tp1282
bS'Images/lapel_design_labels/277fa91bd00249d39bd5539f3f755129.jpg'
p1283
tp1284
Rp1285
ag53
(g26
(S'S63'
p1286
I0
I1
tp1287
Rp1288
(I3
S'|'
p1289
NNNI63
I1
I0
tp1290
bS'Images/lapel_design_labels/924ba13d8faeeb877ddd25f71740f45c.jpg'
p1291
tp1292
Rp1293
ag53
(g26
(S'S63'
p1294
I0
I1
tp1295
Rp1296
(I3
S'|'
p1297
NNNI63
I1
I0
tp1298
bS'Images/lapel_design_labels/a92a0f364a1e25a1a1639cf7a105b124.jpg'
p1299
tp1300
Rp1301
ag53
(g26
(S'S63'
p1302
I0
I1
tp1303
Rp1304
(I3
S'|'
p1305
NNNI63
I1
I0
tp1306
bS'Images/lapel_design_labels/17820aaddd88a4b34c6bf2d40523c426.jpg'
p1307
tp1308
Rp1309
ag53
(g26
(S'S63'
p1310
I0
I1
tp1311
Rp1312
(I3
S'|'
p1313
NNNI63
I1
I0
tp1314
bS'Images/lapel_design_labels/e12cdcff79d557da178cb5ca05954f0b.jpg'
p1315
tp1316
Rp1317
ag53
(g26
(S'S63'
p1318
I0
I1
tp1319
Rp1320
(I3
S'|'
p1321
NNNI63
I1
I0
tp1322
bS'Images/lapel_design_labels/5e5cd3719984f04d0b10fd6af80118db.jpg'
p1323
tp1324
Rp1325
ag53
(g26
(S'S63'
p1326
I0
I1
tp1327
Rp1328
(I3
S'|'
p1329
NNNI63
I1
I0
tp1330
bS'Images/lapel_design_labels/fb0a4ef37d3a3a97bdc3f4d29b0094aa.jpg'
p1331
tp1332
Rp1333
ag53
(g26
(S'S63'
p1334
I0
I1
tp1335
Rp1336
(I3
S'|'
p1337
NNNI63
I1
I0
tp1338
bS'Images/lapel_design_labels/3b0fab451688363ace71a7882fcedcbd.jpg'
p1339
tp1340
Rp1341
ag53
(g26
(S'S63'
p1342
I0
I1
tp1343
Rp1344
(I3
S'|'
p1345
NNNI63
I1
I0
tp1346
bS'Images/lapel_design_labels/61badc84acd975b81c05f6fdc804147c.jpg'
p1347
tp1348
Rp1349
ag53
(g26
(S'S63'
p1350
I0
I1
tp1351
Rp1352
(I3
S'|'
p1353
NNNI63
I1
I0
tp1354
bS'Images/lapel_design_labels/7105be84a98e6f36c4d8f588800c4600.jpg'
p1355
tp1356
Rp1357
ag53
(g26
(S'S63'
p1358
I0
I1
tp1359
Rp1360
(I3
S'|'
p1361
NNNI63
I1
I0
tp1362
bS'Images/lapel_design_labels/74088dad091921b48e09e3e3c90c2c85.jpg'
p1363
tp1364
Rp1365
ag53
(g26
(S'S63'
p1366
I0
I1
tp1367
Rp1368
(I3
S'|'
p1369
NNNI63
I1
I0
tp1370
bS'Images/lapel_design_labels/22a7b966731fb17a1d7d44bf80d3156c.jpg'
p1371
tp1372
Rp1373
ag53
(g26
(S'S63'
p1374
I0
I1
tp1375
Rp1376
(I3
S'|'
p1377
NNNI63
I1
I0
tp1378
bS'Images/lapel_design_labels/7974a0f559b96b3e18693e08cc44fed8.jpg'
p1379
tp1380
Rp1381
ag53
(g26
(S'S63'
p1382
I0
I1
tp1383
Rp1384
(I3
S'|'
p1385
NNNI63
I1
I0
tp1386
bS'Images/lapel_design_labels/8bd13fab6d658e64d362a03ca3078038.jpg'
p1387
tp1388
Rp1389
ag53
(g26
(S'S63'
p1390
I0
I1
tp1391
Rp1392
(I3
S'|'
p1393
NNNI63
I1
I0
tp1394
bS'Images/lapel_design_labels/f53de1ec8460649c44d9c120c7c3a714.jpg'
p1395
tp1396
Rp1397
ag53
(g26
(S'S63'
p1398
I0
I1
tp1399
Rp1400
(I3
S'|'
p1401
NNNI63
I1
I0
tp1402
bS'Images/lapel_design_labels/2543f5a72cdd254b4679c6159b432320.jpg'
p1403
tp1404
Rp1405
ag53
(g26
(S'S63'
p1406
I0
I1
tp1407
Rp1408
(I3
S'|'
p1409
NNNI63
I1
I0
tp1410
bS'Images/lapel_design_labels/1b60d481b18ecd993643215492644104.jpg'
p1411
tp1412
Rp1413
ag53
(g26
(S'S63'
p1414
I0
I1
tp1415
Rp1416
(I3
S'|'
p1417
NNNI63
I1
I0
tp1418
bS'Images/lapel_design_labels/7bc2c70b45a48fae77f2ba2ad5899467.jpg'
p1419
tp1420
Rp1421
ag53
(g26
(S'S63'
p1422
I0
I1
tp1423
Rp1424
(I3
S'|'
p1425
NNNI63
I1
I0
tp1426
bS'Images/lapel_design_labels/cb2e56fa83088dee7f7f536fbd38499b.jpg'
p1427
tp1428
Rp1429
ag53
(g26
(S'S63'
p1430
I0
I1
tp1431
Rp1432
(I3
S'|'
p1433
NNNI63
I1
I0
tp1434
bS'Images/lapel_design_labels/13f015dde5dfda94229887b4d324b230.jpg'
p1435
tp1436
Rp1437
ag53
(g26
(S'S63'
p1438
I0
I1
tp1439
Rp1440
(I3
S'|'
p1441
NNNI63
I1
I0
tp1442
bS'Images/lapel_design_labels/93bd4f4f130bbb5c78255cc0c506abf3.jpg'
p1443
tp1444
Rp1445
ag53
(g26
(S'S63'
p1446
I0
I1
tp1447
Rp1448
(I3
S'|'
p1449
NNNI63
I1
I0
tp1450
bS'Images/lapel_design_labels/b35ddca90bd5258a4beea8f56fa131a5.jpg'
p1451
tp1452
Rp1453
ag53
(g26
(S'S63'
p1454
I0
I1
tp1455
Rp1456
(I3
S'|'
p1457
NNNI63
I1
I0
tp1458
bS'Images/lapel_design_labels/583679b8bc14108484f4f4b508c8ec7f.jpg'
p1459
tp1460
Rp1461
ag53
(g26
(S'S63'
p1462
I0
I1
tp1463
Rp1464
(I3
S'|'
p1465
NNNI63
I1
I0
tp1466
bS'Images/lapel_design_labels/21150549ac3a2ac7adbced87619323b6.jpg'
p1467
tp1468
Rp1469
ag53
(g26
(S'S63'
p1470
I0
I1
tp1471
Rp1472
(I3
S'|'
p1473
NNNI63
I1
I0
tp1474
bS'Images/lapel_design_labels/20fb2a53a2c1eb0c37d166c6ec9c4651.jpg'
p1475
tp1476
Rp1477
ag53
(g26
(S'S63'
p1478
I0
I1
tp1479
Rp1480
(I3
S'|'
p1481
NNNI63
I1
I0
tp1482
bS'Images/lapel_design_labels/84867db6ea0a48685a448cc6e4627b0d.jpg'
p1483
tp1484
Rp1485
ag53
(g26
(S'S63'
p1486
I0
I1
tp1487
Rp1488
(I3
S'|'
p1489
NNNI63
I1
I0
tp1490
bS'Images/lapel_design_labels/b7d052551ea0f56ae9cd3f89d0cbf45a.jpg'
p1491
tp1492
Rp1493
ag53
(g26
(S'S63'
p1494
I0
I1
tp1495
Rp1496
(I3
S'|'
p1497
NNNI63
I1
I0
tp1498
bS'Images/lapel_design_labels/cd3ce4752068e9b65c6e8956b284c4dd.jpg'
p1499
tp1500
Rp1501
ag53
(g26
(S'S63'
p1502
I0
I1
tp1503
Rp1504
(I3
S'|'
p1505
NNNI63
I1
I0
tp1506
bS'Images/lapel_design_labels/974bef0ce8aed183b57a3803ac002b71.jpg'
p1507
tp1508
Rp1509
ag53
(g26
(S'S63'
p1510
I0
I1
tp1511
Rp1512
(I3
S'|'
p1513
NNNI63
I1
I0
tp1514
bS'Images/lapel_design_labels/287da6810c0e7e83d5350214700cc609.jpg'
p1515
tp1516
Rp1517
ag53
(g26
(S'S63'
p1518
I0
I1
tp1519
Rp1520
(I3
S'|'
p1521
NNNI63
I1
I0
tp1522
bS'Images/lapel_design_labels/640cc85eaf56458a59b03ad414f6c579.jpg'
p1523
tp1524
Rp1525
ag53
(g26
(S'S63'
p1526
I0
I1
tp1527
Rp1528
(I3
S'|'
p1529
NNNI63
I1
I0
tp1530
bS'Images/lapel_design_labels/738f7bd17c77d2784edf26a886da122e.jpg'
p1531
tp1532
Rp1533
ag53
(g26
(S'S63'
p1534
I0
I1
tp1535
Rp1536
(I3
S'|'
p1537
NNNI63
I1
I0
tp1538
bS'Images/lapel_design_labels/646e9ca52c689fab5439864bba8b21f2.jpg'
p1539
tp1540
Rp1541
ag53
(g26
(S'S63'
p1542
I0
I1
tp1543
Rp1544
(I3
S'|'
p1545
NNNI63
I1
I0
tp1546
bS'Images/lapel_design_labels/36e56646d2d9f39724e999182ad31b62.jpg'
p1547
tp1548
Rp1549
ag53
(g26
(S'S63'
p1550
I0
I1
tp1551
Rp1552
(I3
S'|'
p1553
NNNI63
I1
I0
tp1554
bS'Images/lapel_design_labels/26bb0406533fdabbcb133d283fe6b97a.jpg'
p1555
tp1556
Rp1557
ag53
(g26
(S'S63'
p1558
I0
I1
tp1559
Rp1560
(I3
S'|'
p1561
NNNI63
I1
I0
tp1562
bS'Images/lapel_design_labels/39e8f5b2a42484a59da19e871b6e1fae.jpg'
p1563
tp1564
Rp1565
ag53
(g26
(S'S63'
p1566
I0
I1
tp1567
Rp1568
(I3
S'|'
p1569
NNNI63
I1
I0
tp1570
bS'Images/lapel_design_labels/84d9d9567bf0875aa330c36082e9a577.jpg'
p1571
tp1572
Rp1573
ag53
(g26
(S'S63'
p1574
I0
I1
tp1575
Rp1576
(I3
S'|'
p1577
NNNI63
I1
I0
tp1578
bS'Images/lapel_design_labels/da14ea9ef3cc053ec966f680bc5728e2.jpg'
p1579
tp1580
Rp1581
ag53
(g26
(S'S63'
p1582
I0
I1
tp1583
Rp1584
(I3
S'|'
p1585
NNNI63
I1
I0
tp1586
bS'Images/lapel_design_labels/1f7ed26c902e2d54e61bfc8722acfb45.jpg'
p1587
tp1588
Rp1589
ag53
(g26
(S'S63'
p1590
I0
I1
tp1591
Rp1592
(I3
S'|'
p1593
NNNI63
I1
I0
tp1594
bS'Images/lapel_design_labels/7f7e24661208f60468d0513119d2dc0f.jpg'
p1595
tp1596
Rp1597
ag53
(g26
(S'S63'
p1598
I0
I1
tp1599
Rp1600
(I3
S'|'
p1601
NNNI63
I1
I0
tp1602
bS'Images/lapel_design_labels/ba5a9b261d8f49e09156edf337aac884.jpg'
p1603
tp1604
Rp1605
ag53
(g26
(S'S63'
p1606
I0
I1
tp1607
Rp1608
(I3
S'|'
p1609
NNNI63
I1
I0
tp1610
bS'Images/lapel_design_labels/1e7fd5b8c2bd48adbb1d48b71a0d264e.jpg'
p1611
tp1612
Rp1613
ag53
(g26
(S'S63'
p1614
I0
I1
tp1615
Rp1616
(I3
S'|'
p1617
NNNI63
I1
I0
tp1618
bS'Images/lapel_design_labels/a470dc3dc08222085e0a3bdf445eb75d.jpg'
p1619
tp1620
Rp1621
ag53
(g26
(S'S63'
p1622
I0
I1
tp1623
Rp1624
(I3
S'|'
p1625
NNNI63
I1
I0
tp1626
bS'Images/lapel_design_labels/4bf5b676bc1131f2e880556db41e1665.jpg'
p1627
tp1628
Rp1629
ag53
(g26
(S'S63'
p1630
I0
I1
tp1631
Rp1632
(I3
S'|'
p1633
NNNI63
I1
I0
tp1634
bS'Images/lapel_design_labels/22cbc49ee81964092d1300bcb816b1fa.jpg'
p1635
tp1636
Rp1637
ag53
(g26
(S'S63'
p1638
I0
I1
tp1639
Rp1640
(I3
S'|'
p1641
NNNI63
I1
I0
tp1642
bS'Images/lapel_design_labels/44d50b7fd6a4da2f977b81ebe79aa327.jpg'
p1643
tp1644
Rp1645
ag53
(g26
(S'S63'
p1646
I0
I1
tp1647
Rp1648
(I3
S'|'
p1649
NNNI63
I1
I0
tp1650
bS'Images/lapel_design_labels/d6ceb30f250ef65f413f6c1c18e9df94.jpg'
p1651
tp1652
Rp1653
ag53
(g26
(S'S63'
p1654
I0
I1
tp1655
Rp1656
(I3
S'|'
p1657
NNNI63
I1
I0
tp1658
bS'Images/lapel_design_labels/a45a1f5248297626c71e6fd47b24a2ed.jpg'
p1659
tp1660
Rp1661
ag53
(g26
(S'S63'
p1662
I0
I1
tp1663
Rp1664
(I3
S'|'
p1665
NNNI63
I1
I0
tp1666
bS'Images/lapel_design_labels/e0fb9c6be091222b79bc6bb785db6c20.jpg'
p1667
tp1668
Rp1669
ag53
(g26
(S'S63'
p1670
I0
I1
tp1671
Rp1672
(I3
S'|'
p1673
NNNI63
I1
I0
tp1674
bS'Images/lapel_design_labels/8c379af4d05f305ca661336d16a6b68c.jpg'
p1675
tp1676
Rp1677
ag53
(g26
(S'S63'
p1678
I0
I1
tp1679
Rp1680
(I3
S'|'
p1681
NNNI63
I1
I0
tp1682
bS'Images/lapel_design_labels/374119b3f16795ca3b1c96833dafde9b.jpg'
p1683
tp1684
Rp1685
ag53
(g26
(S'S63'
p1686
I0
I1
tp1687
Rp1688
(I3
S'|'
p1689
NNNI63
I1
I0
tp1690
bS'Images/lapel_design_labels/d20ff2529ce9c46daa8ff291dce260b4.jpg'
p1691
tp1692
Rp1693
ag53
(g26
(S'S63'
p1694
I0
I1
tp1695
Rp1696
(I3
S'|'
p1697
NNNI63
I1
I0
tp1698
bS'Images/lapel_design_labels/bbdc72fd460a137cc41947d5d27545c7.jpg'
p1699
tp1700
Rp1701
ag53
(g26
(S'S63'
p1702
I0
I1
tp1703
Rp1704
(I3
S'|'
p1705
NNNI63
I1
I0
tp1706
bS'Images/lapel_design_labels/630084c7b197fcc3d66dcf82c26f9f92.jpg'
p1707
tp1708
Rp1709
ag53
(g26
(S'S63'
p1710
I0
I1
tp1711
Rp1712
(I3
S'|'
p1713
NNNI63
I1
I0
tp1714
bS'Images/lapel_design_labels/58c65f891607be1b8aab31be4abd712d.jpg'
p1715
tp1716
Rp1717
ag53
(g26
(S'S63'
p1718
I0
I1
tp1719
Rp1720
(I3
S'|'
p1721
NNNI63
I1
I0
tp1722
bS'Images/lapel_design_labels/e787be6e45e832b5fe512ae132084d2c.jpg'
p1723
tp1724
Rp1725
ag53
(g26
(S'S63'
p1726
I0
I1
tp1727
Rp1728
(I3
S'|'
p1729
NNNI63
I1
I0
tp1730
bS'Images/lapel_design_labels/f70ffaae4978f5937bc99f57196ded07.jpg'
p1731
tp1732
Rp1733
ag53
(g26
(S'S63'
p1734
I0
I1
tp1735
Rp1736
(I3
S'|'
p1737
NNNI63
I1
I0
tp1738
bS'Images/lapel_design_labels/7b0e00a39abfc5ba7baac09c4445bb59.jpg'
p1739
tp1740
Rp1741
ag53
(g26
(S'S63'
p1742
I0
I1
tp1743
Rp1744
(I3
S'|'
p1745
NNNI63
I1
I0
tp1746
bS'Images/lapel_design_labels/4492d79a9d812e1e5a08f55d04358dcd.jpg'
p1747
tp1748
Rp1749
ag53
(g26
(S'S63'
p1750
I0
I1
tp1751
Rp1752
(I3
S'|'
p1753
NNNI63
I1
I0
tp1754
bS'Images/lapel_design_labels/8680aac1e2d74cbdcd0346b3db7ae326.jpg'
p1755
tp1756
Rp1757
ag53
(g26
(S'S63'
p1758
I0
I1
tp1759
Rp1760
(I3
S'|'
p1761
NNNI63
I1
I0
tp1762
bS'Images/lapel_design_labels/7eb0e84f3eaccbc3e2697da1cf588a35.jpg'
p1763
tp1764
Rp1765
ag53
(g26
(S'S63'
p1766
I0
I1
tp1767
Rp1768
(I3
S'|'
p1769
NNNI63
I1
I0
tp1770
bS'Images/lapel_design_labels/c9cb3d6441f089b9e7c16c817d9b24c4.jpg'
p1771
tp1772
Rp1773
ag53
(g26
(S'S63'
p1774
I0
I1
tp1775
Rp1776
(I3
S'|'
p1777
NNNI63
I1
I0
tp1778
bS'Images/lapel_design_labels/af4ede24e90726de347355efa9e839a6.jpg'
p1779
tp1780
Rp1781
ag53
(g26
(S'S63'
p1782
I0
I1
tp1783
Rp1784
(I3
S'|'
p1785
NNNI63
I1
I0
tp1786
bS'Images/lapel_design_labels/28dd1f97b3f359d0a8cdb5b691692740.jpg'
p1787
tp1788
Rp1789
ag53
(g26
(S'S63'
p1790
I0
I1
tp1791
Rp1792
(I3
S'|'
p1793
NNNI63
I1
I0
tp1794
bS'Images/lapel_design_labels/07a0371f86902dba69ca14cfcf8601cf.jpg'
p1795
tp1796
Rp1797
ag53
(g26
(S'S63'
p1798
I0
I1
tp1799
Rp1800
(I3
S'|'
p1801
NNNI63
I1
I0
tp1802
bS'Images/lapel_design_labels/2aa3a836c99a4b2c970a71fd1ea42b6f.jpg'
p1803
tp1804
Rp1805
ag53
(g26
(S'S63'
p1806
I0
I1
tp1807
Rp1808
(I3
S'|'
p1809
NNNI63
I1
I0
tp1810
bS'Images/lapel_design_labels/635a1e4cffd816f0153871eac50b98f7.jpg'
p1811
tp1812
Rp1813
ag53
(g26
(S'S63'
p1814
I0
I1
tp1815
Rp1816
(I3
S'|'
p1817
NNNI63
I1
I0
tp1818
bS'Images/lapel_design_labels/55494318124854275908b8ce2d09d60c.jpg'
p1819
tp1820
Rp1821
ag53
(g26
(S'S63'
p1822
I0
I1
tp1823
Rp1824
(I3
S'|'
p1825
NNNI63
I1
I0
tp1826
bS'Images/lapel_design_labels/274d4d558d48e73a9064c7aef62239ac.jpg'
p1827
tp1828
Rp1829
ag53
(g26
(S'S63'
p1830
I0
I1
tp1831
Rp1832
(I3
S'|'
p1833
NNNI63
I1
I0
tp1834
bS'Images/lapel_design_labels/26f7e7ecfb8f5ace2875476285f2dac0.jpg'
p1835
tp1836
Rp1837
ag53
(g26
(S'S63'
p1838
I0
I1
tp1839
Rp1840
(I3
S'|'
p1841
NNNI63
I1
I0
tp1842
bS'Images/lapel_design_labels/26a42cdad8487bc50623576a9ccad1b1.jpg'
p1843
tp1844
Rp1845
ag53
(g26
(S'S63'
p1846
I0
I1
tp1847
Rp1848
(I3
S'|'
p1849
NNNI63
I1
I0
tp1850
bS'Images/lapel_design_labels/d5cf5f245701af9a240accd054b0a1b2.jpg'
p1851
tp1852
Rp1853
ag53
(g26
(S'S63'
p1854
I0
I1
tp1855
Rp1856
(I3
S'|'
p1857
NNNI63
I1
I0
tp1858
bS'Images/lapel_design_labels/f012ec4911f5cb7b0075d9c6381390a0.jpg'
p1859
tp1860
Rp1861
ag53
(g26
(S'S63'
p1862
I0
I1
tp1863
Rp1864
(I3
S'|'
p1865
NNNI63
I1
I0
tp1866
bS'Images/lapel_design_labels/5e6b0648b07d85db8beaaf7f03584903.jpg'
p1867
tp1868
Rp1869
ag53
(g26
(S'S63'
p1870
I0
I1
tp1871
Rp1872
(I3
S'|'
p1873
NNNI63
I1
I0
tp1874
bS'Images/lapel_design_labels/04fb627d6686252e444a2bc956dea457.jpg'
p1875
tp1876
Rp1877
ag53
(g26
(S'S63'
p1878
I0
I1
tp1879
Rp1880
(I3
S'|'
p1881
NNNI63
I1
I0
tp1882
bS'Images/lapel_design_labels/431db1a6519bca0e7bef241e61638267.jpg'
p1883
tp1884
Rp1885
ag53
(g26
(S'S63'
p1886
I0
I1
tp1887
Rp1888
(I3
S'|'
p1889
NNNI63
I1
I0
tp1890
bS'Images/lapel_design_labels/4d40ec8040d4a0b8442cac0620ead095.jpg'
p1891
tp1892
Rp1893
ag53
(g26
(S'S63'
p1894
I0
I1
tp1895
Rp1896
(I3
S'|'
p1897
NNNI63
I1
I0
tp1898
bS'Images/lapel_design_labels/4f4c6a8915ab37ed7f3c23dd08fa51c0.jpg'
p1899
tp1900
Rp1901
ag53
(g26
(S'S63'
p1902
I0
I1
tp1903
Rp1904
(I3
S'|'
p1905
NNNI63
I1
I0
tp1906
bS'Images/lapel_design_labels/1655457df54023f7fface9d4a1b4bab7.jpg'
p1907
tp1908
Rp1909
ag53
(g26
(S'S63'
p1910
I0
I1
tp1911
Rp1912
(I3
S'|'
p1913
NNNI63
I1
I0
tp1914
bS'Images/lapel_design_labels/6c689d1078dca3eb4179f197f98056b1.jpg'
p1915
tp1916
Rp1917
ag53
(g26
(S'S63'
p1918
I0
I1
tp1919
Rp1920
(I3
S'|'
p1921
NNNI63
I1
I0
tp1922
bS'Images/lapel_design_labels/a8b8d4228372a5910294fedbac4512a0.jpg'
p1923
tp1924
Rp1925
ag53
(g26
(S'S63'
p1926
I0
I1
tp1927
Rp1928
(I3
S'|'
p1929
NNNI63
I1
I0
tp1930
bS'Images/lapel_design_labels/f7ec852c6ffaf2e86e6bdecde6454395.jpg'
p1931
tp1932
Rp1933
ag53
(g26
(S'S63'
p1934
I0
I1
tp1935
Rp1936
(I3
S'|'
p1937
NNNI63
I1
I0
tp1938
bS'Images/lapel_design_labels/ad04027cbfc37ebff61cef5cbbc5aa6a.jpg'
p1939
tp1940
Rp1941
ag53
(g26
(S'S63'
p1942
I0
I1
tp1943
Rp1944
(I3
S'|'
p1945
NNNI63
I1
I0
tp1946
bS'Images/lapel_design_labels/e9acde420dac6a356bd9761f34eb0544.jpg'
p1947
tp1948
Rp1949
ag53
(g26
(S'S63'
p1950
I0
I1
tp1951
Rp1952
(I3
S'|'
p1953
NNNI63
I1
I0
tp1954
bS'Images/lapel_design_labels/68c4ed63575c7723b0486bb7ab9df678.jpg'
p1955
tp1956
Rp1957
ag53
(g26
(S'S63'
p1958
I0
I1
tp1959
Rp1960
(I3
S'|'
p1961
NNNI63
I1
I0
tp1962
bS'Images/lapel_design_labels/ba630954176d65c0c649d93c40510b17.jpg'
p1963
tp1964
Rp1965
ag53
(g26
(S'S63'
p1966
I0
I1
tp1967
Rp1968
(I3
S'|'
p1969
NNNI63
I1
I0
tp1970
bS'Images/lapel_design_labels/16818aad4784cae0a8775703a6cf9e3d.jpg'
p1971
tp1972
Rp1973
ag53
(g26
(S'S63'
p1974
I0
I1
tp1975
Rp1976
(I3
S'|'
p1977
NNNI63
I1
I0
tp1978
bS'Images/lapel_design_labels/90dc9180629fe9b05aadaf50f993eb9c.jpg'
p1979
tp1980
Rp1981
ag53
(g26
(S'S63'
p1982
I0
I1
tp1983
Rp1984
(I3
S'|'
p1985
NNNI63
I1
I0
tp1986
bS'Images/lapel_design_labels/d12cd01ad1ef2635fe8a2ff3cdd56675.jpg'
p1987
tp1988
Rp1989
ag53
(g26
(S'S63'
p1990
I0
I1
tp1991
Rp1992
(I3
S'|'
p1993
NNNI63
I1
I0
tp1994
bS'Images/lapel_design_labels/0c3dabd512422abce56582af475cd1ee.jpg'
p1995
tp1996
Rp1997
ag53
(g26
(S'S63'
p1998
I0
I1
tp1999
Rp2000
(I3
S'|'
p2001
NNNI63
I1
I0
tp2002
bS'Images/lapel_design_labels/7ce5f9595c4a4293bc2f3874268950a5.jpg'
p2003
tp2004
Rp2005
ag53
(g26
(S'S63'
p2006
I0
I1
tp2007
Rp2008
(I3
S'|'
p2009
NNNI63
I1
I0
tp2010
bS'Images/lapel_design_labels/48881e559358e8eff54324a821215b0b.jpg'
p2011
tp2012
Rp2013
ag53
(g26
(S'S63'
p2014
I0
I1
tp2015
Rp2016
(I3
S'|'
p2017
NNNI63
I1
I0
tp2018
bS'Images/lapel_design_labels/e65104a7f7ea827628a6f0a618e1b815.jpg'
p2019
tp2020
Rp2021
ag53
(g26
(S'S63'
p2022
I0
I1
tp2023
Rp2024
(I3
S'|'
p2025
NNNI63
I1
I0
tp2026
bS'Images/lapel_design_labels/cfc6b2d7e4c08af772b0db9434f23b24.jpg'
p2027
tp2028
Rp2029
ag53
(g26
(S'S63'
p2030
I0
I1
tp2031
Rp2032
(I3
S'|'
p2033
NNNI63
I1
I0
tp2034
bS'Images/lapel_design_labels/ed4f4decca3a2c17600f93d134f1d789.jpg'
p2035
tp2036
Rp2037
ag53
(g26
(S'S63'
p2038
I0
I1
tp2039
Rp2040
(I3
S'|'
p2041
NNNI63
I1
I0
tp2042
bS'Images/lapel_design_labels/d0d160d7d6d45bb19bdd9c13b003a579.jpg'
p2043
tp2044
Rp2045
ag53
(g26
(S'S63'
p2046
I0
I1
tp2047
Rp2048
(I3
S'|'
p2049
NNNI63
I1
I0
tp2050
bS'Images/lapel_design_labels/233d61a5c5858e787d8026d5c24c752f.jpg'
p2051
tp2052
Rp2053
ag53
(g26
(S'S63'
p2054
I0
I1
tp2055
Rp2056
(I3
S'|'
p2057
NNNI63
I1
I0
tp2058
bS'Images/lapel_design_labels/c074ae6666dd97d95e452b113f2a6586.jpg'
p2059
tp2060
Rp2061
ag53
(g26
(S'S63'
p2062
I0
I1
tp2063
Rp2064
(I3
S'|'
p2065
NNNI63
I1
I0
tp2066
bS'Images/lapel_design_labels/b24cd64fbd3f7f5660ef263b0164e772.jpg'
p2067
tp2068
Rp2069
ag53
(g26
(S'S63'
p2070
I0
I1
tp2071
Rp2072
(I3
S'|'
p2073
NNNI63
I1
I0
tp2074
bS'Images/lapel_design_labels/b8782b60bf50c5f136df56bf71e1c6b6.jpg'
p2075
tp2076
Rp2077
ag53
(g26
(S'S63'
p2078
I0
I1
tp2079
Rp2080
(I3
S'|'
p2081
NNNI63
I1
I0
tp2082
bS'Images/lapel_design_labels/b6f2ec670192e8dd142af194dacb6d79.jpg'
p2083
tp2084
Rp2085
ag53
(g26
(S'S63'
p2086
I0
I1
tp2087
Rp2088
(I3
S'|'
p2089
NNNI63
I1
I0
tp2090
bS'Images/lapel_design_labels/f5af1dfb6c6420e5e8a1cbca4e10b3c1.jpg'
p2091
tp2092
Rp2093
ag53
(g26
(S'S63'
p2094
I0
I1
tp2095
Rp2096
(I3
S'|'
p2097
NNNI63
I1
I0
tp2098
bS'Images/lapel_design_labels/c3bfb3f850ea66599715988b2285c9fa.jpg'
p2099
tp2100
Rp2101
ag53
(g26
(S'S63'
p2102
I0
I1
tp2103
Rp2104
(I3
S'|'
p2105
NNNI63
I1
I0
tp2106
bS'Images/lapel_design_labels/4e998b04c866f47eda2c35eb266a7dad.jpg'
p2107
tp2108
Rp2109
ag53
(g26
(S'S63'
p2110
I0
I1
tp2111
Rp2112
(I3
S'|'
p2113
NNNI63
I1
I0
tp2114
bS'Images/lapel_design_labels/0928ade22676cea7e4cc6d23e549972e.jpg'
p2115
tp2116
Rp2117
ag53
(g26
(S'S63'
p2118
I0
I1
tp2119
Rp2120
(I3
S'|'
p2121
NNNI63
I1
I0
tp2122
bS'Images/lapel_design_labels/9e307c8a04ff2138d584b0784bb04edf.jpg'
p2123
tp2124
Rp2125
ag53
(g26
(S'S63'
p2126
I0
I1
tp2127
Rp2128
(I3
S'|'
p2129
NNNI63
I1
I0
tp2130
bS'Images/lapel_design_labels/6349d4e9a7f7874ae1389a6011f48692.jpg'
p2131
tp2132
Rp2133
ag53
(g26
(S'S63'
p2134
I0
I1
tp2135
Rp2136
(I3
S'|'
p2137
NNNI63
I1
I0
tp2138
bS'Images/lapel_design_labels/949a81bd8ab2ab837b2be084347e7bcc.jpg'
p2139
tp2140
Rp2141
ag53
(g26
(S'S63'
p2142
I0
I1
tp2143
Rp2144
(I3
S'|'
p2145
NNNI63
I1
I0
tp2146
bS'Images/lapel_design_labels/443fba606bc8dfe8aa7b34e3f1629c58.jpg'
p2147
tp2148
Rp2149
ag53
(g26
(S'S63'
p2150
I0
I1
tp2151
Rp2152
(I3
S'|'
p2153
NNNI63
I1
I0
tp2154
bS'Images/lapel_design_labels/c449e63aeee35360dc40d3801f7e732b.jpg'
p2155
tp2156
Rp2157
ag53
(g26
(S'S63'
p2158
I0
I1
tp2159
Rp2160
(I3
S'|'
p2161
NNNI63
I1
I0
tp2162
bS'Images/lapel_design_labels/adef3cce8caeeef2687b2f29e9097b39.jpg'
p2163
tp2164
Rp2165
ag53
(g26
(S'S63'
p2166
I0
I1
tp2167
Rp2168
(I3
S'|'
p2169
NNNI63
I1
I0
tp2170
bS'Images/lapel_design_labels/2d73a4df75090c2ed34d613dccf18b7d.jpg'
p2171
tp2172
Rp2173
ag53
(g26
(S'S63'
p2174
I0
I1
tp2175
Rp2176
(I3
S'|'
p2177
NNNI63
I1
I0
tp2178
bS'Images/lapel_design_labels/1be23c10d0bda5fa56bba7e2efe088a0.jpg'
p2179
tp2180
Rp2181
ag53
(g26
(S'S63'
p2182
I0
I1
tp2183
Rp2184
(I3
S'|'
p2185
NNNI63
I1
I0
tp2186
bS'Images/lapel_design_labels/7de42c48d07e025e81a6d4fd07e920e3.jpg'
p2187
tp2188
Rp2189
ag53
(g26
(S'S63'
p2190
I0
I1
tp2191
Rp2192
(I3
S'|'
p2193
NNNI63
I1
I0
tp2194
bS'Images/lapel_design_labels/1edca26ee7bc6beff6d9bc455f138ee3.jpg'
p2195
tp2196
Rp2197
ag53
(g26
(S'S63'
p2198
I0
I1
tp2199
Rp2200
(I3
S'|'
p2201
NNNI63
I1
I0
tp2202
bS'Images/lapel_design_labels/d67899ebdb08b8d6518309f4dc21d233.jpg'
p2203
tp2204
Rp2205
ag53
(g26
(S'S63'
p2206
I0
I1
tp2207
Rp2208
(I3
S'|'
p2209
NNNI63
I1
I0
tp2210
bS'Images/lapel_design_labels/68ba1ac313e33e7b932f8597391a1e00.jpg'
p2211
tp2212
Rp2213
ag53
(g26
(S'S63'
p2214
I0
I1
tp2215
Rp2216
(I3
S'|'
p2217
NNNI63
I1
I0
tp2218
bS'Images/lapel_design_labels/6d9e0a6e027aceb2af2666358dfaef6b.jpg'
p2219
tp2220
Rp2221
ag53
(g26
(S'S63'
p2222
I0
I1
tp2223
Rp2224
(I3
S'|'
p2225
NNNI63
I1
I0
tp2226
bS'Images/lapel_design_labels/e7ef562850cff526568e70564f1c9272.jpg'
p2227
tp2228
Rp2229
ag53
(g26
(S'S63'
p2230
I0
I1
tp2231
Rp2232
(I3
S'|'
p2233
NNNI63
I1
I0
tp2234
bS'Images/lapel_design_labels/27ca977291763b9040625c097f2564d7.jpg'
p2235
tp2236
Rp2237
ag53
(g26
(S'S63'
p2238
I0
I1
tp2239
Rp2240
(I3
S'|'
p2241
NNNI63
I1
I0
tp2242
bS'Images/lapel_design_labels/ba86216f22bfad1e8d86c8ae3b3d71a4.jpg'
p2243
tp2244
Rp2245
ag53
(g26
(S'S63'
p2246
I0
I1
tp2247
Rp2248
(I3
S'|'
p2249
NNNI63
I1
I0
tp2250
bS'Images/lapel_design_labels/2bd967d16003ede82c36c28ef9d84eb0.jpg'
p2251
tp2252
Rp2253
ag53
(g26
(S'S63'
p2254
I0
I1
tp2255
Rp2256
(I3
S'|'
p2257
NNNI63
I1
I0
tp2258
bS'Images/lapel_design_labels/0045c6f91de82da820c6e6f3a01058e7.jpg'
p2259
tp2260
Rp2261
ag53
(g26
(S'S63'
p2262
I0
I1
tp2263
Rp2264
(I3
S'|'
p2265
NNNI63
I1
I0
tp2266
bS'Images/lapel_design_labels/6e047e23ddbda6d79c9899c622f963b5.jpg'
p2267
tp2268
Rp2269
ag53
(g26
(S'S63'
p2270
I0
I1
tp2271
Rp2272
(I3
S'|'
p2273
NNNI63
I1
I0
tp2274
bS'Images/lapel_design_labels/dd1d263ded1395fcee27353a2d3ac65d.jpg'
p2275
tp2276
Rp2277
ag53
(g26
(S'S63'
p2278
I0
I1
tp2279
Rp2280
(I3
S'|'
p2281
NNNI63
I1
I0
tp2282
bS'Images/lapel_design_labels/f7f2e0a20b0c60e050774fde839384a3.jpg'
p2283
tp2284
Rp2285
ag53
(g26
(S'S63'
p2286
I0
I1
tp2287
Rp2288
(I3
S'|'
p2289
NNNI63
I1
I0
tp2290
bS'Images/lapel_design_labels/14cd42fb6dedfbd7cf1cdbb587d38eef.jpg'
p2291
tp2292
Rp2293
ag53
(g26
(S'S63'
p2294
I0
I1
tp2295
Rp2296
(I3
S'|'
p2297
NNNI63
I1
I0
tp2298
bS'Images/lapel_design_labels/c86874666907ee4288ef12fa255664d1.jpg'
p2299
tp2300
Rp2301
ag53
(g26
(S'S63'
p2302
I0
I1
tp2303
Rp2304
(I3
S'|'
p2305
NNNI63
I1
I0
tp2306
bS'Images/lapel_design_labels/146ee1840e5744b4c66cf81f872559ef.jpg'
p2307
tp2308
Rp2309
ag53
(g26
(S'S63'
p2310
I0
I1
tp2311
Rp2312
(I3
S'|'
p2313
NNNI63
I1
I0
tp2314
bS'Images/lapel_design_labels/351ea1df827c56b020802f1236b13424.jpg'
p2315
tp2316
Rp2317
ag53
(g26
(S'S63'
p2318
I0
I1
tp2319
Rp2320
(I3
S'|'
p2321
NNNI63
I1
I0
tp2322
bS'Images/lapel_design_labels/b96ddcfce23a676b5263c91766f24762.jpg'
p2323
tp2324
Rp2325
ag53
(g26
(S'S63'
p2326
I0
I1
tp2327
Rp2328
(I3
S'|'
p2329
NNNI63
I1
I0
tp2330
bS'Images/lapel_design_labels/98c6300ef0029e65cfd73decf9597bde.jpg'
p2331
tp2332
Rp2333
ag53
(g26
(S'S63'
p2334
I0
I1
tp2335
Rp2336
(I3
S'|'
p2337
NNNI63
I1
I0
tp2338
bS'Images/lapel_design_labels/1444241d8c55f28056ccbcc7f98de06c.jpg'
p2339
tp2340
Rp2341
ag53
(g26
(S'S63'
p2342
I0
I1
tp2343
Rp2344
(I3
S'|'
p2345
NNNI63
I1
I0
tp2346
bS'Images/lapel_design_labels/b6b1f768757ebdb100516282c571effb.jpg'
p2347
tp2348
Rp2349
ag53
(g26
(S'S63'
p2350
I0
I1
tp2351
Rp2352
(I3
S'|'
p2353
NNNI63
I1
I0
tp2354
bS'Images/lapel_design_labels/ec37982748ab9ed8df887afb8cfc7ec4.jpg'
p2355
tp2356
Rp2357
ag53
(g26
(S'S63'
p2358
I0
I1
tp2359
Rp2360
(I3
S'|'
p2361
NNNI63
I1
I0
tp2362
bS'Images/lapel_design_labels/b33660621c32c79518123bb3bf5379c6.jpg'
p2363
tp2364
Rp2365
ag53
(g26
(S'S63'
p2366
I0
I1
tp2367
Rp2368
(I3
S'|'
p2369
NNNI63
I1
I0
tp2370
bS'Images/lapel_design_labels/67b7ac0c05f8157795dee02e3dbaf603.jpg'
p2371
tp2372
Rp2373
ag53
(g26
(S'S63'
p2374
I0
I1
tp2375
Rp2376
(I3
S'|'
p2377
NNNI63
I1
I0
tp2378
bS'Images/lapel_design_labels/762cd3d32d84be679da193fbd771f260.jpg'
p2379
tp2380
Rp2381
ag53
(g26
(S'S63'
p2382
I0
I1
tp2383
Rp2384
(I3
S'|'
p2385
NNNI63
I1
I0
tp2386
bS'Images/lapel_design_labels/bff24430b9ed894741bd1727c1fff9c0.jpg'
p2387
tp2388
Rp2389
ag53
(g26
(S'S63'
p2390
I0
I1
tp2391
Rp2392
(I3
S'|'
p2393
NNNI63
I1
I0
tp2394
bS'Images/lapel_design_labels/8d2dc1709fd192f0352102ab7a40dca2.jpg'
p2395
tp2396
Rp2397
ag53
(g26
(S'S63'
p2398
I0
I1
tp2399
Rp2400
(I3
S'|'
p2401
NNNI63
I1
I0
tp2402
bS'Images/lapel_design_labels/cdb64b3f73cf65561bc1f4481f6bc2b9.jpg'
p2403
tp2404
Rp2405
ag53
(g26
(S'S63'
p2406
I0
I1
tp2407
Rp2408
(I3
S'|'
p2409
NNNI63
I1
I0
tp2410
bS'Images/lapel_design_labels/93a426c1e65dc61b93c966f858fc4c55.jpg'
p2411
tp2412
Rp2413
ag53
(g26
(S'S63'
p2414
I0
I1
tp2415
Rp2416
(I3
S'|'
p2417
NNNI63
I1
I0
tp2418
bS'Images/lapel_design_labels/608c062a6804341d6881b06714f2a496.jpg'
p2419
tp2420
Rp2421
ag53
(g26
(S'S63'
p2422
I0
I1
tp2423
Rp2424
(I3
S'|'
p2425
NNNI63
I1
I0
tp2426
bS'Images/lapel_design_labels/0fe4af196086bc27efc4a2b5eaefcd44.jpg'
p2427
tp2428
Rp2429
ag53
(g26
(S'S63'
p2430
I0
I1
tp2431
Rp2432
(I3
S'|'
p2433
NNNI63
I1
I0
tp2434
bS'Images/lapel_design_labels/b86c66de1a4d2f981a9ebe155af100ce.jpg'
p2435
tp2436
Rp2437
ag53
(g26
(S'S63'
p2438
I0
I1
tp2439
Rp2440
(I3
S'|'
p2441
NNNI63
I1
I0
tp2442
bS'Images/lapel_design_labels/4e4ef5c373a021b5cf59c702b673f818.jpg'
p2443
tp2444
Rp2445
ag53
(g26
(S'S63'
p2446
I0
I1
tp2447
Rp2448
(I3
S'|'
p2449
NNNI63
I1
I0
tp2450
bS'Images/lapel_design_labels/c3760c8a02baf457396ee1302345bb10.jpg'
p2451
tp2452
Rp2453
ag53
(g26
(S'S63'
p2454
I0
I1
tp2455
Rp2456
(I3
S'|'
p2457
NNNI63
I1
I0
tp2458
bS'Images/lapel_design_labels/c9909073d1dc688fc54f8fe353a6f2ce.jpg'
p2459
tp2460
Rp2461
ag53
(g26
(S'S63'
p2462
I0
I1
tp2463
Rp2464
(I3
S'|'
p2465
NNNI63
I1
I0
tp2466
bS'Images/lapel_design_labels/4bc2549598653ca122e79886f1a2ebeb.jpg'
p2467
tp2468
Rp2469
ag53
(g26
(S'S63'
p2470
I0
I1
tp2471
Rp2472
(I3
S'|'
p2473
NNNI63
I1
I0
tp2474
bS'Images/lapel_design_labels/d27e5cae8976eac09daf015a85440b69.jpg'
p2475
tp2476
Rp2477
ag53
(g26
(S'S63'
p2478
I0
I1
tp2479
Rp2480
(I3
S'|'
p2481
NNNI63
I1
I0
tp2482
bS'Images/lapel_design_labels/0d5ff06439af13a2935598a87746ada7.jpg'
p2483
tp2484
Rp2485
ag53
(g26
(S'S63'
p2486
I0
I1
tp2487
Rp2488
(I3
S'|'
p2489
NNNI63
I1
I0
tp2490
bS'Images/lapel_design_labels/29f7714c6aab0cbd5ccf961c591747e5.jpg'
p2491
tp2492
Rp2493
ag53
(g26
(S'S63'
p2494
I0
I1
tp2495
Rp2496
(I3
S'|'
p2497
NNNI63
I1
I0
tp2498
bS'Images/lapel_design_labels/9093357817b3f132252ba0bc46c2843d.jpg'
p2499
tp2500
Rp2501
ag53
(g26
(S'S63'
p2502
I0
I1
tp2503
Rp2504
(I3
S'|'
p2505
NNNI63
I1
I0
tp2506
bS'Images/lapel_design_labels/3f24eb26cfeaac29d9602d480d661ef8.jpg'
p2507
tp2508
Rp2509
ag53
(g26
(S'S63'
p2510
I0
I1
tp2511
Rp2512
(I3
S'|'
p2513
NNNI63
I1
I0
tp2514
bS'Images/lapel_design_labels/d7d9971d0346a1ac62a493fdc7fbba2f.jpg'
p2515
tp2516
Rp2517
ag53
(g26
(S'S63'
p2518
I0
I1
tp2519
Rp2520
(I3
S'|'
p2521
NNNI63
I1
I0
tp2522
bS'Images/lapel_design_labels/c1129c04771b12ace078b448b556e44a.jpg'
p2523
tp2524
Rp2525
ag53
(g26
(S'S63'
p2526
I0
I1
tp2527
Rp2528
(I3
S'|'
p2529
NNNI63
I1
I0
tp2530
bS'Images/lapel_design_labels/26057ae38e5bb8217e0b2b6b45dccd28.jpg'
p2531
tp2532
Rp2533
ag53
(g26
(S'S63'
p2534
I0
I1
tp2535
Rp2536
(I3
S'|'
p2537
NNNI63
I1
I0
tp2538
bS'Images/lapel_design_labels/6ddf600541ee2b88e56dbcfe71e6eebb.jpg'
p2539
tp2540
Rp2541
ag53
(g26
(S'S63'
p2542
I0
I1
tp2543
Rp2544
(I3
S'|'
p2545
NNNI63
I1
I0
tp2546
bS'Images/lapel_design_labels/cbc9e1c7a0e5e6873db5b59d82e740fa.jpg'
p2547
tp2548
Rp2549
ag53
(g26
(S'S63'
p2550
I0
I1
tp2551
Rp2552
(I3
S'|'
p2553
NNNI63
I1
I0
tp2554
bS'Images/lapel_design_labels/37233822e88899c663ee435ccddf86f6.jpg'
p2555
tp2556
Rp2557
ag53
(g26
(S'S63'
p2558
I0
I1
tp2559
Rp2560
(I3
S'|'
p2561
NNNI63
I1
I0
tp2562
bS'Images/lapel_design_labels/b6b4d680efa5ef7165f62a30bfdb335c.jpg'
p2563
tp2564
Rp2565
ag53
(g26
(S'S63'
p2566
I0
I1
tp2567
Rp2568
(I3
S'|'
p2569
NNNI63
I1
I0
tp2570
bS'Images/lapel_design_labels/260f93a8769af34472affbd4707de952.jpg'
p2571
tp2572
Rp2573
ag53
(g26
(S'S63'
p2574
I0
I1
tp2575
Rp2576
(I3
S'|'
p2577
NNNI63
I1
I0
tp2578
bS'Images/lapel_design_labels/1d1d27a23f3203a157ed1625adcc7d23.jpg'
p2579
tp2580
Rp2581
ag53
(g26
(S'S63'
p2582
I0
I1
tp2583
Rp2584
(I3
S'|'
p2585
NNNI63
I1
I0
tp2586
bS'Images/lapel_design_labels/b57f9ec6e81d314208040aaa087e6aa8.jpg'
p2587
tp2588
Rp2589
ag53
(g26
(S'S63'
p2590
I0
I1
tp2591
Rp2592
(I3
S'|'
p2593
NNNI63
I1
I0
tp2594
bS'Images/lapel_design_labels/78af5ec13761bc0e1ab346692c1419e5.jpg'
p2595
tp2596
Rp2597
ag53
(g26
(S'S63'
p2598
I0
I1
tp2599
Rp2600
(I3
S'|'
p2601
NNNI63
I1
I0
tp2602
bS'Images/lapel_design_labels/60ff7e495858a2660db595b7c6820057.jpg'
p2603
tp2604
Rp2605
ag53
(g26
(S'S63'
p2606
I0
I1
tp2607
Rp2608
(I3
S'|'
p2609
NNNI63
I1
I0
tp2610
bS'Images/lapel_design_labels/3d1251d70cd24ac903511bd0a16a899e.jpg'
p2611
tp2612
Rp2613
ag53
(g26
(S'S63'
p2614
I0
I1
tp2615
Rp2616
(I3
S'|'
p2617
NNNI63
I1
I0
tp2618
bS'Images/lapel_design_labels/9f686e7f3fa689e12f7aa69f51ca3155.jpg'
p2619
tp2620
Rp2621
ag53
(g26
(S'S63'
p2622
I0
I1
tp2623
Rp2624
(I3
S'|'
p2625
NNNI63
I1
I0
tp2626
bS'Images/lapel_design_labels/f1ee8192b63615676bf8eec1b91d1740.jpg'
p2627
tp2628
Rp2629
ag53
(g26
(S'S63'
p2630
I0
I1
tp2631
Rp2632
(I3
S'|'
p2633
NNNI63
I1
I0
tp2634
bS'Images/lapel_design_labels/8ecd950e4611a9db2e17628abb52f155.jpg'
p2635
tp2636
Rp2637
ag53
(g26
(S'S63'
p2638
I0
I1
tp2639
Rp2640
(I3
S'|'
p2641
NNNI63
I1
I0
tp2642
bS'Images/lapel_design_labels/de284b48e5f540d7eef39af4787a1626.jpg'
p2643
tp2644
Rp2645
ag53
(g26
(S'S63'
p2646
I0
I1
tp2647
Rp2648
(I3
S'|'
p2649
NNNI63
I1
I0
tp2650
bS'Images/lapel_design_labels/a603189fc356b8d953ee1e7a26d397e7.jpg'
p2651
tp2652
Rp2653
ag53
(g26
(S'S63'
p2654
I0
I1
tp2655
Rp2656
(I3
S'|'
p2657
NNNI63
I1
I0
tp2658
bS'Images/lapel_design_labels/e7df9d31faa1489b558bb0fe46969d76.jpg'
p2659
tp2660
Rp2661
ag53
(g26
(S'S63'
p2662
I0
I1
tp2663
Rp2664
(I3
S'|'
p2665
NNNI63
I1
I0
tp2666
bS'Images/lapel_design_labels/cb78dc78b926bc90c052067549ea5aa5.jpg'
p2667
tp2668
Rp2669
ag53
(g26
(S'S63'
p2670
I0
I1
tp2671
Rp2672
(I3
S'|'
p2673
NNNI63
I1
I0
tp2674
bS'Images/lapel_design_labels/93d79122cb8c982e45d78120b2e1cc29.jpg'
p2675
tp2676
Rp2677
ag53
(g26
(S'S63'
p2678
I0
I1
tp2679
Rp2680
(I3
S'|'
p2681
NNNI63
I1
I0
tp2682
bS'Images/lapel_design_labels/496b78b2322afd17d08a21faafc06cf7.jpg'
p2683
tp2684
Rp2685
ag53
(g26
(S'S63'
p2686
I0
I1
tp2687
Rp2688
(I3
S'|'
p2689
NNNI63
I1
I0
tp2690
bS'Images/lapel_design_labels/368a00f01bc6f742ab0f18866ec5731e.jpg'
p2691
tp2692
Rp2693
ag53
(g26
(S'S63'
p2694
I0
I1
tp2695
Rp2696
(I3
S'|'
p2697
NNNI63
I1
I0
tp2698
bS'Images/lapel_design_labels/ecb6bc505738aa9f340dd104332870da.jpg'
p2699
tp2700
Rp2701
ag53
(g26
(S'S63'
p2702
I0
I1
tp2703
Rp2704
(I3
S'|'
p2705
NNNI63
I1
I0
tp2706
bS'Images/lapel_design_labels/ba9b663145ac6fe3161dff0d965c3f8d.jpg'
p2707
tp2708
Rp2709
ag53
(g26
(S'S63'
p2710
I0
I1
tp2711
Rp2712
(I3
S'|'
p2713
NNNI63
I1
I0
tp2714
bS'Images/lapel_design_labels/f84e785a7aca863cda95b9402740a3a3.jpg'
p2715
tp2716
Rp2717
ag53
(g26
(S'S63'
p2718
I0
I1
tp2719
Rp2720
(I3
S'|'
p2721
NNNI63
I1
I0
tp2722
bS'Images/lapel_design_labels/aa03ba936b20a44586dbf1ddbfd59ca7.jpg'
p2723
tp2724
Rp2725
ag53
(g26
(S'S63'
p2726
I0
I1
tp2727
Rp2728
(I3
S'|'
p2729
NNNI63
I1
I0
tp2730
bS'Images/lapel_design_labels/d7e2a4b81a73872b89c2ff3ce123dfd1.jpg'
p2731
tp2732
Rp2733
ag53
(g26
(S'S63'
p2734
I0
I1
tp2735
Rp2736
(I3
S'|'
p2737
NNNI63
I1
I0
tp2738
bS'Images/lapel_design_labels/8b89be0a71ce2aea9c3dd6a3dadcaab6.jpg'
p2739
tp2740
Rp2741
ag53
(g26
(S'S63'
p2742
I0
I1
tp2743
Rp2744
(I3
S'|'
p2745
NNNI63
I1
I0
tp2746
bS'Images/lapel_design_labels/9dfb40fa77e25851b5eebc2dca9e5857.jpg'
p2747
tp2748
Rp2749
ag53
(g26
(S'S63'
p2750
I0
I1
tp2751
Rp2752
(I3
S'|'
p2753
NNNI63
I1
I0
tp2754
bS'Images/lapel_design_labels/ac46df7379a7a71971523483089d86b7.jpg'
p2755
tp2756
Rp2757
ag53
(g26
(S'S63'
p2758
I0
I1
tp2759
Rp2760
(I3
S'|'
p2761
NNNI63
I1
I0
tp2762
bS'Images/lapel_design_labels/ec575fdfadd6e9e5aad2a2fa28e6e709.jpg'
p2763
tp2764
Rp2765
ag53
(g26
(S'S63'
p2766
I0
I1
tp2767
Rp2768
(I3
S'|'
p2769
NNNI63
I1
I0
tp2770
bS'Images/lapel_design_labels/d40e2730ebc51531bd4e312adf614dcb.jpg'
p2771
tp2772
Rp2773
ag53
(g26
(S'S63'
p2774
I0
I1
tp2775
Rp2776
(I3
S'|'
p2777
NNNI63
I1
I0
tp2778
bS'Images/lapel_design_labels/fdf5aec3bf33e291f3670a7355487aec.jpg'
p2779
tp2780
Rp2781
ag53
(g26
(S'S63'
p2782
I0
I1
tp2783
Rp2784
(I3
S'|'
p2785
NNNI63
I1
I0
tp2786
bS'Images/lapel_design_labels/ce4136dd9f21657858688df8310d19a8.jpg'
p2787
tp2788
Rp2789
ag53
(g26
(S'S63'
p2790
I0
I1
tp2791
Rp2792
(I3
S'|'
p2793
NNNI63
I1
I0
tp2794
bS'Images/lapel_design_labels/3e47893d305d890eb16944ab8ccc2da5.jpg'
p2795
tp2796
Rp2797
ag53
(g26
(S'S63'
p2798
I0
I1
tp2799
Rp2800
(I3
S'|'
p2801
NNNI63
I1
I0
tp2802
bS'Images/lapel_design_labels/350ccb97d4ce01807057e2f0d484f0f6.jpg'
p2803
tp2804
Rp2805
ag53
(g26
(S'S63'
p2806
I0
I1
tp2807
Rp2808
(I3
S'|'
p2809
NNNI63
I1
I0
tp2810
bS'Images/lapel_design_labels/94e19f80df9c8c1c50fe9ebb3f8f0804.jpg'
p2811
tp2812
Rp2813
ag53
(g26
(S'S63'
p2814
I0
I1
tp2815
Rp2816
(I3
S'|'
p2817
NNNI63
I1
I0
tp2818
bS'Images/lapel_design_labels/b718ee1f38dede1f4d821ca21bcdc119.jpg'
p2819
tp2820
Rp2821
ag53
(g26
(S'S63'
p2822
I0
I1
tp2823
Rp2824
(I3
S'|'
p2825
NNNI63
I1
I0
tp2826
bS'Images/lapel_design_labels/b5618068861266f1c489e3026952bb5d.jpg'
p2827
tp2828
Rp2829
ag53
(g26
(S'S63'
p2830
I0
I1
tp2831
Rp2832
(I3
S'|'
p2833
NNNI63
I1
I0
tp2834
bS'Images/lapel_design_labels/82d9a6c58131f631564259cf63200177.jpg'
p2835
tp2836
Rp2837
ag53
(g26
(S'S63'
p2838
I0
I1
tp2839
Rp2840
(I3
S'|'
p2841
NNNI63
I1
I0
tp2842
bS'Images/lapel_design_labels/1a4d6a86cb7eb4a7da91204d4b8c21fd.jpg'
p2843
tp2844
Rp2845
ag53
(g26
(S'S63'
p2846
I0
I1
tp2847
Rp2848
(I3
S'|'
p2849
NNNI63
I1
I0
tp2850
bS'Images/lapel_design_labels/55191f2b2f465719d4e722ce3de91acb.jpg'
p2851
tp2852
Rp2853
ag53
(g26
(S'S63'
p2854
I0
I1
tp2855
Rp2856
(I3
S'|'
p2857
NNNI63
I1
I0
tp2858
bS'Images/lapel_design_labels/b43045c209da8c2b5a4fccdab641e84e.jpg'
p2859
tp2860
Rp2861
ag53
(g26
(S'S63'
p2862
I0
I1
tp2863
Rp2864
(I3
S'|'
p2865
NNNI63
I1
I0
tp2866
bS'Images/lapel_design_labels/9c37820c1b7acac9ece42a7203fd384c.jpg'
p2867
tp2868
Rp2869
ag19
(g20
(I0
tp2870
g22
tp2871
Rp2872
(I1
(I5
tp2873
g26
(S'f4'
p2874
I0
I1
tp2875
Rp2876
(I3
S'<'
p2877
NNNI-1
I-1
I0
tp2878
bI00
S'\x00\x00\x00\x00\x00\x00\x80?\x00\x00\x00\x00\x00\x00\x00\x00\x00\x00\x00\x00'
p2879
tp2880
bag19
(g20
(I0
tp2881
g22
tp2882
Rp2883
(I1
(I5
tp2884
g2876
I00
S'\x00\x00\x00\x00\x00\x00\x00\x00\x00\x00\x80?\x00\x00\x00\x00\x00\x00\x00\x00'
p2885
tp2886
bag19
(g20
(I0
tp2887
g22
tp2888
Rp2889
(I1
(I5
tp2890
g2876
I00
S'\x00\x00\x00\x00\x00\x00\x00\x00\x00\x00\x80?\x00\x00\x00\x00\x00\x00\x00\x00'
p2891
tp2892
bag19
(g20
(I0
tp2893
g22
tp2894
Rp2895
(I1
(I5
tp2896
g2876
I00
S'\x00\x00\x00\x00\x00\x00\x00\x00\x00\x00\x80?\x00\x00\x00\x00\x00\x00\x00\x00'
p2897
tp2898
bag19
(g20
(I0
tp2899
g22
tp2900
Rp2901
(I1
(I5
tp2902
g2876
I00
S'\x00\x00\x80?\x00\x00\x00\x00\x00\x00\x00\x00\x00\x00\x00\x00\x00\x00\x00\x00'
p2903
tp2904
bag19
(g20
(I0
tp2905
g22
tp2906
Rp2907
(I1
(I5
tp2908
g2876
I00
S'\x00\x00\x00\x00\x00\x00\x80?\x00\x00\x00\x00\x00\x00\x00\x00\x00\x00\x00\x00'
p2909
tp2910
bag19
(g20
(I0
tp2911
g22
tp2912
Rp2913
(I1
(I5
tp2914
g2876
I00
S'\x00\x00\x00\x00\x00\x00\x00\x00\x00\x00\x80?\x00\x00\x00\x00\x00\x00\x00\x00'
p2915
tp2916
bag19
(g20
(I0
tp2917
g22
tp2918
Rp2919
(I1
(I5
tp2920
g2876
I00
S'\x00\x00\x00\x00\x00\x00\x00\x00\x00\x00\x00\x00\x00\x00\x80?\x00\x00\x00\x00'
p2921
tp2922
bag19
(g20
(I0
tp2923
g22
tp2924
Rp2925
(I1
(I5
tp2926
g2876
I00
S'\x00\x00\x00\x00\x00\x00\x00\x00\x00\x00\x00\x00\x00\x00\x00\x00\x00\x00\x80?'
p2927
tp2928
bag19
(g20
(I0
tp2929
g22
tp2930
Rp2931
(I1
(I5
tp2932
g2876
I00
S'\x00\x00\x00\x00\x00\x00\x00\x00\x00\x00\x80?\x00\x00\x00\x00\x00\x00\x00\x00'
p2933
tp2934
bag19
(g20
(I0
tp2935
g22
tp2936
Rp2937
(I1
(I5
tp2938
g2876
I00
S'\x00\x00\x00\x00\x00\x00\x00\x00\x00\x00\x80?\x00\x00\x00\x00\x00\x00\x00\x00'
p2939
tp2940
bag19
(g20
(I0
tp2941
g22
tp2942
Rp2943
(I1
(I5
tp2944
g2876
I00
S'\x00\x00\x00\x00\x00\x00\x00\x00\x00\x00\x80?\x00\x00\x00\x00\x00\x00\x00\x00'
p2945
tp2946
bag19
(g20
(I0
tp2947
g22
tp2948
Rp2949
(I1
(I5
tp2950
g2876
I00
S'\x00\x00\x00\x00\x00\x00\x80?\x00\x00\x00\x00\x00\x00\x00\x00\x00\x00\x00\x00'
p2951
tp2952
bag19
(g20
(I0
tp2953
g22
tp2954
Rp2955
(I1
(I5
tp2956
g2876
I00
S'\x00\x00\x00\x00\x00\x00\x00\x00\x00\x00\x00\x00\x00\x00\x80?\x00\x00\x00\x00'
p2957
tp2958
bag19
(g20
(I0
tp2959
g22
tp2960
Rp2961
(I1
(I5
tp2962
g2876
I00
S'\x00\x00\x80?\x00\x00\x00\x00\x00\x00\x00\x00\x00\x00\x00\x00\x00\x00\x00\x00'
p2963
tp2964
bag19
(g20
(I0
tp2965
g22
tp2966
Rp2967
(I1
(I5
tp2968
g2876
I00
S'\x00\x00\x00\x00\x00\x00\x80?\x00\x00\x00\x00\x00\x00\x00\x00\x00\x00\x00\x00'
p2969
tp2970
bag19
(g20
(I0
tp2971
g22
tp2972
Rp2973
(I1
(I5
tp2974
g2876
I00
S'\x00\x00\x80?\x00\x00\x00\x00\x00\x00\x00\x00\x00\x00\x00\x00\x00\x00\x00\x00'
p2975
tp2976
bag19
(g20
(I0
tp2977
g22
tp2978
Rp2979
(I1
(I5
tp2980
g2876
I00
S'\x00\x00\x00\x00\x00\x00\x80?\x00\x00\x00\x00\x00\x00\x00\x00\x00\x00\x00\x00'
p2981
tp2982
bag19
(g20
(I0
tp2983
g22
tp2984
Rp2985
(I1
(I5
tp2986
g2876
I00
S'\x00\x00\x00\x00\x00\x00\x00\x00\x00\x00\x80?\x00\x00\x00\x00\x00\x00\x00\x00'
p2987
tp2988
bag19
(g20
(I0
tp2989
g22
tp2990
Rp2991
(I1
(I5
tp2992
g2876
I00
S'\x00\x00\x00\x00\x00\x00\x80?\x00\x00\x00\x00\x00\x00\x00\x00\x00\x00\x00\x00'
p2993
tp2994
bag19
(g20
(I0
tp2995
g22
tp2996
Rp2997
(I1
(I5
tp2998
g2876
I00
S'\x00\x00\x00\x00\x00\x00\x00\x00\x00\x00\x80?\x00\x00\x00\x00\x00\x00\x00\x00'
p2999
tp3000
bag19
(g20
(I0
tp3001
g22
tp3002
Rp3003
(I1
(I5
tp3004
g2876
I00
S'\x00\x00\x00\x00\x00\x00\x80?\x00\x00\x00\x00\x00\x00\x00\x00\x00\x00\x00\x00'
p3005
tp3006
bag19
(g20
(I0
tp3007
g22
tp3008
Rp3009
(I1
(I5
tp3010
g2876
I00
S'\x00\x00\x00\x00\x00\x00\x80?\x00\x00\x00\x00\x00\x00\x00\x00\x00\x00\x00\x00'
p3011
tp3012
bag19
(g20
(I0
tp3013
g22
tp3014
Rp3015
(I1
(I5
tp3016
g2876
I00
S'\x00\x00\x00\x00\x00\x00\x00\x00\x00\x00\x00\x00\x00\x00\x00\x00\x00\x00\x80?'
p3017
tp3018
bag19
(g20
(I0
tp3019
g22
tp3020
Rp3021
(I1
(I5
tp3022
g2876
I00
S'\x00\x00\x00\x00\x00\x00\x00\x00\x00\x00\x00\x00\x00\x00\x80?\x00\x00\x00\x00'
p3023
tp3024
bag19
(g20
(I0
tp3025
g22
tp3026
Rp3027
(I1
(I5
tp3028
g2876
I00
S'\x00\x00\x00\x00\x00\x00\x00\x00\x00\x00\x80?\x00\x00\x00\x00\x00\x00\x00\x00'
p3029
tp3030
bag19
(g20
(I0
tp3031
g22
tp3032
Rp3033
(I1
(I5
tp3034
g2876
I00
S'\x00\x00\x00\x00\x00\x00\x00\x00\x00\x00\x00\x00\x00\x00\x00\x00\x00\x00\x80?'
p3035
tp3036
bag19
(g20
(I0
tp3037
g22
tp3038
Rp3039
(I1
(I5
tp3040
g2876
I00
S'\x00\x00\x00\x00\x00\x00\x80?\x00\x00\x00\x00\x00\x00\x00\x00\x00\x00\x00\x00'
p3041
tp3042
bag19
(g20
(I0
tp3043
g22
tp3044
Rp3045
(I1
(I5
tp3046
g2876
I00
S'\x00\x00\x00\x00\x00\x00\x00\x00\x00\x00\x80?\x00\x00\x00\x00\x00\x00\x00\x00'
p3047
tp3048
bag19
(g20
(I0
tp3049
g22
tp3050
Rp3051
(I1
(I5
tp3052
g2876
I00
S'\x00\x00\x00\x00\x00\x00\x00\x00\x00\x00\x00\x00\x00\x00\x80?\x00\x00\x00\x00'
p3053
tp3054
bag19
(g20
(I0
tp3055
g22
tp3056
Rp3057
(I1
(I5
tp3058
g2876
I00
S'\x00\x00\x00\x00\x00\x00\x00\x00\x00\x00\x00\x00\x00\x00\x00\x00\x00\x00\x80?'
p3059
tp3060
bag19
(g20
(I0
tp3061
g22
tp3062
Rp3063
(I1
(I5
tp3064
g2876
I00
S'\x00\x00\x80?\x00\x00\x00\x00\x00\x00\x00\x00\x00\x00\x00\x00\x00\x00\x00\x00'
p3065
tp3066
bag19
(g20
(I0
tp3067
g22
tp3068
Rp3069
(I1
(I5
tp3070
g2876
I00
S'\x00\x00\x00\x00\x00\x00\x00\x00\x00\x00\x00\x00\x00\x00\x00\x00\x00\x00\x80?'
p3071
tp3072
bag19
(g20
(I0
tp3073
g22
tp3074
Rp3075
(I1
(I5
tp3076
g2876
I00
S'\x00\x00\x00\x00\x00\x00\x00\x00\x00\x00\x80?\x00\x00\x00\x00\x00\x00\x00\x00'
p3077
tp3078
bag19
(g20
(I0
tp3079
g22
tp3080
Rp3081
(I1
(I5
tp3082
g2876
I00
S'\x00\x00\x00\x00\x00\x00\x00\x00\x00\x00\x80?\x00\x00\x00\x00\x00\x00\x00\x00'
p3083
tp3084
bag19
(g20
(I0
tp3085
g22
tp3086
Rp3087
(I1
(I5
tp3088
g2876
I00
S'\x00\x00\x00\x00\x00\x00\x00\x00\x00\x00\x00\x00\x00\x00\x00\x00\x00\x00\x80?'
p3089
tp3090
bag19
(g20
(I0
tp3091
g22
tp3092
Rp3093
(I1
(I5
tp3094
g2876
I00
S'\x00\x00\x00\x00\x00\x00\x00\x00\x00\x00\x80?\x00\x00\x00\x00\x00\x00\x00\x00'
p3095
tp3096
bag19
(g20
(I0
tp3097
g22
tp3098
Rp3099
(I1
(I5
tp3100
g2876
I00
S'\x00\x00\x00\x00\x00\x00\x00\x00\x00\x00\x00\x00\x00\x00\x80?\x00\x00\x00\x00'
p3101
tp3102
bag19
(g20
(I0
tp3103
g22
tp3104
Rp3105
(I1
(I5
tp3106
g2876
I00
S'\x00\x00\x00\x00\x00\x00\x00\x00\x00\x00\x80?\x00\x00\x00\x00\x00\x00\x00\x00'
p3107
tp3108
bag19
(g20
(I0
tp3109
g22
tp3110
Rp3111
(I1
(I5
tp3112
g2876
I00
S'\x00\x00\x80?\x00\x00\x00\x00\x00\x00\x00\x00\x00\x00\x00\x00\x00\x00\x00\x00'
p3113
tp3114
bag19
(g20
(I0
tp3115
g22
tp3116
Rp3117
(I1
(I5
tp3118
g2876
I00
S'\x00\x00\x00\x00\x00\x00\x00\x00\x00\x00\x00\x00\x00\x00\x80?\x00\x00\x00\x00'
p3119
tp3120
bag19
(g20
(I0
tp3121
g22
tp3122
Rp3123
(I1
(I5
tp3124
g2876
I00
S'\x00\x00\x00\x00\x00\x00\x00\x00\x00\x00\x80?\x00\x00\x00\x00\x00\x00\x00\x00'
p3125
tp3126
bag19
(g20
(I0
tp3127
g22
tp3128
Rp3129
(I1
(I5
tp3130
g2876
I00
S'\x00\x00\x00\x00\x00\x00\x00\x00\x00\x00\x80?\x00\x00\x00\x00\x00\x00\x00\x00'
p3131
tp3132
bag19
(g20
(I0
tp3133
g22
tp3134
Rp3135
(I1
(I5
tp3136
g2876
I00
S'\x00\x00\x00\x00\x00\x00\x00\x00\x00\x00\x80?\x00\x00\x00\x00\x00\x00\x00\x00'
p3137
tp3138
bag19
(g20
(I0
tp3139
g22
tp3140
Rp3141
(I1
(I5
tp3142
g2876
I00
S'\x00\x00\x00\x00\x00\x00\x00\x00\x00\x00\x00\x00\x00\x00\x80?\x00\x00\x00\x00'
p3143
tp3144
bag19
(g20
(I0
tp3145
g22
tp3146
Rp3147
(I1
(I5
tp3148
g2876
I00
S'\x00\x00\x00\x00\x00\x00\x00\x00\x00\x00\x80?\x00\x00\x00\x00\x00\x00\x00\x00'
p3149
tp3150
bag19
(g20
(I0
tp3151
g22
tp3152
Rp3153
(I1
(I5
tp3154
g2876
I00
S'\x00\x00\x00\x00\x00\x00\x00\x00\x00\x00\x80?\x00\x00\x00\x00\x00\x00\x00\x00'
p3155
tp3156
bag19
(g20
(I0
tp3157
g22
tp3158
Rp3159
(I1
(I5
tp3160
g2876
I00
S'\x00\x00\x00\x00\x00\x00\x80?\x00\x00\x00\x00\x00\x00\x00\x00\x00\x00\x00\x00'
p3161
tp3162
bag19
(g20
(I0
tp3163
g22
tp3164
Rp3165
(I1
(I5
tp3166
g2876
I00
S'\x00\x00\x00\x00\x00\x00\x80?\x00\x00\x00\x00\x00\x00\x00\x00\x00\x00\x00\x00'
p3167
tp3168
bag19
(g20
(I0
tp3169
g22
tp3170
Rp3171
(I1
(I5
tp3172
g2876
I00
S'\x00\x00\x00\x00\x00\x00\x00\x00\x00\x00\x80?\x00\x00\x00\x00\x00\x00\x00\x00'
p3173
tp3174
bag19
(g20
(I0
tp3175
g22
tp3176
Rp3177
(I1
(I5
tp3178
g2876
I00
S'\x00\x00\x00\x00\x00\x00\x00\x00\x00\x00\x00\x00\x00\x00\x80?\x00\x00\x00\x00'
p3179
tp3180
bag19
(g20
(I0
tp3181
g22
tp3182
Rp3183
(I1
(I5
tp3184
g2876
I00
S'\x00\x00\x00\x00\x00\x00\x00\x00\x00\x00\x00\x00\x00\x00\x80?\x00\x00\x00\x00'
p3185
tp3186
bag19
(g20
(I0
tp3187
g22
tp3188
Rp3189
(I1
(I5
tp3190
g2876
I00
S'\x00\x00\x00\x00\x00\x00\x80?\x00\x00\x00\x00\x00\x00\x00\x00\x00\x00\x00\x00'
p3191
tp3192
bag19
(g20
(I0
tp3193
g22
tp3194
Rp3195
(I1
(I5
tp3196
g2876
I00
S'\x00\x00\x00\x00\x00\x00\x00\x00\x00\x00\x00\x00\x00\x00\x00\x00\x00\x00\x80?'
p3197
tp3198
bag19
(g20
(I0
tp3199
g22
tp3200
Rp3201
(I1
(I5
tp3202
g2876
I00
S'\x00\x00\x00\x00\x00\x00\x00\x00\x00\x00\x80?\x00\x00\x00\x00\x00\x00\x00\x00'
p3203
tp3204
bag19
(g20
(I0
tp3205
g22
tp3206
Rp3207
(I1
(I5
tp3208
g2876
I00
S'\x00\x00\x00\x00\x00\x00\x80?\x00\x00\x00\x00\x00\x00\x00\x00\x00\x00\x00\x00'
p3209
tp3210
bag19
(g20
(I0
tp3211
g22
tp3212
Rp3213
(I1
(I5
tp3214
g2876
I00
S'\x00\x00\x00\x00\x00\x00\x00\x00\x00\x00\x00\x00\x00\x00\x00\x00\x00\x00\x80?'
p3215
tp3216
bag19
(g20
(I0
tp3217
g22
tp3218
Rp3219
(I1
(I5
tp3220
g2876
I00
S'\x00\x00\x00\x00\x00\x00\x00\x00\x00\x00\x80?\x00\x00\x00\x00\x00\x00\x00\x00'
p3221
tp3222
bag19
(g20
(I0
tp3223
g22
tp3224
Rp3225
(I1
(I5
tp3226
g2876
I00
S'\x00\x00\x00\x00\x00\x00\x00\x00\x00\x00\x80?\x00\x00\x00\x00\x00\x00\x00\x00'
p3227
tp3228
bag19
(g20
(I0
tp3229
g22
tp3230
Rp3231
(I1
(I5
tp3232
g2876
I00
S'\x00\x00\x00\x00\x00\x00\x00\x00\x00\x00\x80?\x00\x00\x00\x00\x00\x00\x00\x00'
p3233
tp3234
bag19
(g20
(I0
tp3235
g22
tp3236
Rp3237
(I1
(I5
tp3238
g2876
I00
S'\x00\x00\x00\x00\x00\x00\x00\x00\x00\x00\x80?\x00\x00\x00\x00\x00\x00\x00\x00'
p3239
tp3240
bag19
(g20
(I0
tp3241
g22
tp3242
Rp3243
(I1
(I5
tp3244
g2876
I00
S'\x00\x00\x80?\x00\x00\x00\x00\x00\x00\x00\x00\x00\x00\x00\x00\x00\x00\x00\x00'
p3245
tp3246
bag19
(g20
(I0
tp3247
g22
tp3248
Rp3249
(I1
(I5
tp3250
g2876
I00
S'\x00\x00\x00\x00\x00\x00\x00\x00\x00\x00\x00\x00\x00\x00\x00\x00\x00\x00\x80?'
p3251
tp3252
bag19
(g20
(I0
tp3253
g22
tp3254
Rp3255
(I1
(I5
tp3256
g2876
I00
S'\x00\x00\x00\x00\x00\x00\x80?\x00\x00\x00\x00\x00\x00\x00\x00\x00\x00\x00\x00'
p3257
tp3258
bag19
(g20
(I0
tp3259
g22
tp3260
Rp3261
(I1
(I5
tp3262
g2876
I00
S'\x00\x00\x80?\x00\x00\x00\x00\x00\x00\x00\x00\x00\x00\x00\x00\x00\x00\x00\x00'
p3263
tp3264
bag19
(g20
(I0
tp3265
g22
tp3266
Rp3267
(I1
(I5
tp3268
g2876
I00
S'\x00\x00\x00\x00\x00\x00\x00\x00\x00\x00\x00\x00\x00\x00\x80?\x00\x00\x00\x00'
p3269
tp3270
bag19
(g20
(I0
tp3271
g22
tp3272
Rp3273
(I1
(I5
tp3274
g2876
I00
S'\x00\x00\x00\x00\x00\x00\x00\x00\x00\x00\x00\x00\x00\x00\x00\x00\x00\x00\x80?'
p3275
tp3276
bag19
(g20
(I0
tp3277
g22
tp3278
Rp3279
(I1
(I5
tp3280
g2876
I00
S'\x00\x00\x00\x00\x00\x00\x80?\x00\x00\x00\x00\x00\x00\x00\x00\x00\x00\x00\x00'
p3281
tp3282
bag19
(g20
(I0
tp3283
g22
tp3284
Rp3285
(I1
(I5
tp3286
g2876
I00
S'\x00\x00\x00\x00\x00\x00\x00\x00\x00\x00\x00\x00\x00\x00\x00\x00\x00\x00\x80?'
p3287
tp3288
bag19
(g20
(I0
tp3289
g22
tp3290
Rp3291
(I1
(I5
tp3292
g2876
I00
S'\x00\x00\x00\x00\x00\x00\x00\x00\x00\x00\x00\x00\x00\x00\x00\x00\x00\x00\x80?'
p3293
tp3294
bag19
(g20
(I0
tp3295
g22
tp3296
Rp3297
(I1
(I5
tp3298
g2876
I00
S'\x00\x00\x80?\x00\x00\x00\x00\x00\x00\x00\x00\x00\x00\x00\x00\x00\x00\x00\x00'
p3299
tp3300
bag19
(g20
(I0
tp3301
g22
tp3302
Rp3303
(I1
(I5
tp3304
g2876
I00
S'\x00\x00\x00\x00\x00\x00\x00\x00\x00\x00\x80?\x00\x00\x00\x00\x00\x00\x00\x00'
p3305
tp3306
bag19
(g20
(I0
tp3307
g22
tp3308
Rp3309
(I1
(I5
tp3310
g2876
I00
S'\x00\x00\x00\x00\x00\x00\x00\x00\x00\x00\x80?\x00\x00\x00\x00\x00\x00\x00\x00'
p3311
tp3312
bag19
(g20
(I0
tp3313
g22
tp3314
Rp3315
(I1
(I5
tp3316
g2876
I00
S'\x00\x00\x00\x00\x00\x00\x00\x00\x00\x00\x00\x00\x00\x00\x00\x00\x00\x00\x80?'
p3317
tp3318
bag19
(g20
(I0
tp3319
g22
tp3320
Rp3321
(I1
(I5
tp3322
g2876
I00
S'\x00\x00\x00\x00\x00\x00\x80?\x00\x00\x00\x00\x00\x00\x00\x00\x00\x00\x00\x00'
p3323
tp3324
bag19
(g20
(I0
tp3325
g22
tp3326
Rp3327
(I1
(I5
tp3328
g2876
I00
S'\x00\x00\x80?\x00\x00\x00\x00\x00\x00\x00\x00\x00\x00\x00\x00\x00\x00\x00\x00'
p3329
tp3330
bag19
(g20
(I0
tp3331
g22
tp3332
Rp3333
(I1
(I5
tp3334
g2876
I00
S'\x00\x00\x80?\x00\x00\x00\x00\x00\x00\x00\x00\x00\x00\x00\x00\x00\x00\x00\x00'
p3335
tp3336
bag19
(g20
(I0
tp3337
g22
tp3338
Rp3339
(I1
(I5
tp3340
g2876
I00
S'\x00\x00\x00\x00\x00\x00\x00\x00\x00\x00\x80?\x00\x00\x00\x00\x00\x00\x00\x00'
p3341
tp3342
bag19
(g20
(I0
tp3343
g22
tp3344
Rp3345
(I1
(I5
tp3346
g2876
I00
S'\x00\x00\x80?\x00\x00\x00\x00\x00\x00\x00\x00\x00\x00\x00\x00\x00\x00\x00\x00'
p3347
tp3348
bag19
(g20
(I0
tp3349
g22
tp3350
Rp3351
(I1
(I5
tp3352
g2876
I00
S'\x00\x00\x00\x00\x00\x00\x00\x00\x00\x00\x80?\x00\x00\x00\x00\x00\x00\x00\x00'
p3353
tp3354
bag19
(g20
(I0
tp3355
g22
tp3356
Rp3357
(I1
(I5
tp3358
g2876
I00
S'\x00\x00\x00\x00\x00\x00\x00\x00\x00\x00\x80?\x00\x00\x00\x00\x00\x00\x00\x00'
p3359
tp3360
bag19
(g20
(I0
tp3361
g22
tp3362
Rp3363
(I1
(I5
tp3364
g2876
I00
S'\x00\x00\x80?\x00\x00\x00\x00\x00\x00\x00\x00\x00\x00\x00\x00\x00\x00\x00\x00'
p3365
tp3366
bag19
(g20
(I0
tp3367
g22
tp3368
Rp3369
(I1
(I5
tp3370
g2876
I00
S'\x00\x00\x00\x00\x00\x00\x00\x00\x00\x00\x00\x00\x00\x00\x00\x00\x00\x00\x80?'
p3371
tp3372
bag19
(g20
(I0
tp3373
g22
tp3374
Rp3375
(I1
(I5
tp3376
g2876
I00
S'\x00\x00\x00\x00\x00\x00\x00\x00\x00\x00\x00\x00\x00\x00\x00\x00\x00\x00\x80?'
p3377
tp3378
bag19
(g20
(I0
tp3379
g22
tp3380
Rp3381
(I1
(I5
tp3382
g2876
I00
S'\x00\x00\x00\x00\x00\x00\x00\x00\x00\x00\x00\x00\x00\x00\x00\x00\x00\x00\x80?'
p3383
tp3384
bag19
(g20
(I0
tp3385
g22
tp3386
Rp3387
(I1
(I5
tp3388
g2876
I00
S'\x00\x00\x00\x00\x00\x00\x80?\x00\x00\x00\x00\x00\x00\x00\x00\x00\x00\x00\x00'
p3389
tp3390
bag19
(g20
(I0
tp3391
g22
tp3392
Rp3393
(I1
(I5
tp3394
g2876
I00
S'\x00\x00\x80?\x00\x00\x00\x00\x00\x00\x00\x00\x00\x00\x00\x00\x00\x00\x00\x00'
p3395
tp3396
bag19
(g20
(I0
tp3397
g22
tp3398
Rp3399
(I1
(I5
tp3400
g2876
I00
S'\x00\x00\x00\x00\x00\x00\x00\x00\x00\x00\x80?\x00\x00\x00\x00\x00\x00\x00\x00'
p3401
tp3402
bag19
(g20
(I0
tp3403
g22
tp3404
Rp3405
(I1
(I5
tp3406
g2876
I00
S'\x00\x00\x00\x00\x00\x00\x00\x00\x00\x00\x00\x00\x00\x00\x00\x00\x00\x00\x80?'
p3407
tp3408
bag19
(g20
(I0
tp3409
g22
tp3410
Rp3411
(I1
(I5
tp3412
g2876
I00
S'\x00\x00\x00\x00\x00\x00\x00\x00\x00\x00\x00\x00\x00\x00\x80?\x00\x00\x00\x00'
p3413
tp3414
bag19
(g20
(I0
tp3415
g22
tp3416
Rp3417
(I1
(I5
tp3418
g2876
I00
S'\x00\x00\x00\x00\x00\x00\x80?\x00\x00\x00\x00\x00\x00\x00\x00\x00\x00\x00\x00'
p3419
tp3420
bag19
(g20
(I0
tp3421
g22
tp3422
Rp3423
(I1
(I5
tp3424
g2876
I00
S'\x00\x00\x00\x00\x00\x00\x00\x00\x00\x00\x00\x00\x00\x00\x80?\x00\x00\x00\x00'
p3425
tp3426
bag19
(g20
(I0
tp3427
g22
tp3428
Rp3429
(I1
(I5
tp3430
g2876
I00
S'\x00\x00\x00\x00\x00\x00\x00\x00\x00\x00\x00\x00\x00\x00\x00\x00\x00\x00\x80?'
p3431
tp3432
bag19
(g20
(I0
tp3433
g22
tp3434
Rp3435
(I1
(I5
tp3436
g2876
I00
S'\x00\x00\x00\x00\x00\x00\x00\x00\x00\x00\x80?\x00\x00\x00\x00\x00\x00\x00\x00'
p3437
tp3438
bag19
(g20
(I0
tp3439
g22
tp3440
Rp3441
(I1
(I5
tp3442
g2876
I00
S'\x00\x00\x00\x00\x00\x00\x80?\x00\x00\x00\x00\x00\x00\x00\x00\x00\x00\x00\x00'
p3443
tp3444
bag19
(g20
(I0
tp3445
g22
tp3446
Rp3447
(I1
(I5
tp3448
g2876
I00
S'\x00\x00\x00\x00\x00\x00\x00\x00\x00\x00\x00\x00\x00\x00\x00\x00\x00\x00\x80?'
p3449
tp3450
bag19
(g20
(I0
tp3451
g22
tp3452
Rp3453
(I1
(I5
tp3454
g2876
I00
S'\x00\x00\x80?\x00\x00\x00\x00\x00\x00\x00\x00\x00\x00\x00\x00\x00\x00\x00\x00'
p3455
tp3456
bag19
(g20
(I0
tp3457
g22
tp3458
Rp3459
(I1
(I5
tp3460
g2876
I00
S'\x00\x00\x00\x00\x00\x00\x00\x00\x00\x00\x80?\x00\x00\x00\x00\x00\x00\x00\x00'
p3461
tp3462
bag19
(g20
(I0
tp3463
g22
tp3464
Rp3465
(I1
(I5
tp3466
g2876
I00
S'\x00\x00\x00\x00\x00\x00\x80?\x00\x00\x00\x00\x00\x00\x00\x00\x00\x00\x00\x00'
p3467
tp3468
bag19
(g20
(I0
tp3469
g22
tp3470
Rp3471
(I1
(I5
tp3472
g2876
I00
S'\x00\x00\x00\x00\x00\x00\x00\x00\x00\x00\x00\x00\x00\x00\x80?\x00\x00\x00\x00'
p3473
tp3474
bag19
(g20
(I0
tp3475
g22
tp3476
Rp3477
(I1
(I5
tp3478
g2876
I00
S'\x00\x00\x80?\x00\x00\x00\x00\x00\x00\x00\x00\x00\x00\x00\x00\x00\x00\x00\x00'
p3479
tp3480
bag19
(g20
(I0
tp3481
g22
tp3482
Rp3483
(I1
(I5
tp3484
g2876
I00
S'\x00\x00\x00\x00\x00\x00\x80?\x00\x00\x00\x00\x00\x00\x00\x00\x00\x00\x00\x00'
p3485
tp3486
bag19
(g20
(I0
tp3487
g22
tp3488
Rp3489
(I1
(I5
tp3490
g2876
I00
S'\x00\x00\x00\x00\x00\x00\x00\x00\x00\x00\x00\x00\x00\x00\x00\x00\x00\x00\x80?'
p3491
tp3492
bag19
(g20
(I0
tp3493
g22
tp3494
Rp3495
(I1
(I5
tp3496
g2876
I00
S'\x00\x00\x00\x00\x00\x00\x00\x00\x00\x00\x80?\x00\x00\x00\x00\x00\x00\x00\x00'
p3497
tp3498
bag19
(g20
(I0
tp3499
g22
tp3500
Rp3501
(I1
(I5
tp3502
g2876
I00
S'\x00\x00\x00\x00\x00\x00\x00\x00\x00\x00\x00\x00\x00\x00\x00\x00\x00\x00\x80?'
p3503
tp3504
bag19
(g20
(I0
tp3505
g22
tp3506
Rp3507
(I1
(I5
tp3508
g2876
I00
S'\x00\x00\x00\x00\x00\x00\x00\x00\x00\x00\x00\x00\x00\x00\x00\x00\x00\x00\x80?'
p3509
tp3510
bag19
(g20
(I0
tp3511
g22
tp3512
Rp3513
(I1
(I5
tp3514
g2876
I00
S'\x00\x00\x00\x00\x00\x00\x80?\x00\x00\x00\x00\x00\x00\x00\x00\x00\x00\x00\x00'
p3515
tp3516
bag19
(g20
(I0
tp3517
g22
tp3518
Rp3519
(I1
(I5
tp3520
g2876
I00
S'\x00\x00\x80?\x00\x00\x00\x00\x00\x00\x00\x00\x00\x00\x00\x00\x00\x00\x00\x00'
p3521
tp3522
bag19
(g20
(I0
tp3523
g22
tp3524
Rp3525
(I1
(I5
tp3526
g2876
I00
S'\x00\x00\x00\x00\x00\x00\x00\x00\x00\x00\x00\x00\x00\x00\x00\x00\x00\x00\x80?'
p3527
tp3528
bag19
(g20
(I0
tp3529
g22
tp3530
Rp3531
(I1
(I5
tp3532
g2876
I00
S'\x00\x00\x00\x00\x00\x00\x00\x00\x00\x00\x00\x00\x00\x00\x00\x00\x00\x00\x80?'
p3533
tp3534
bag19
(g20
(I0
tp3535
g22
tp3536
Rp3537
(I1
(I5
tp3538
g2876
I00
S'\x00\x00\x00\x00\x00\x00\x80?\x00\x00\x00\x00\x00\x00\x00\x00\x00\x00\x00\x00'
p3539
tp3540
bag19
(g20
(I0
tp3541
g22
tp3542
Rp3543
(I1
(I5
tp3544
g2876
I00
S'\x00\x00\x00\x00\x00\x00\x00\x00\x00\x00\x80?\x00\x00\x00\x00\x00\x00\x00\x00'
p3545
tp3546
bag19
(g20
(I0
tp3547
g22
tp3548
Rp3549
(I1
(I5
tp3550
g2876
I00
S'\x00\x00\x00\x00\x00\x00\x00\x00\x00\x00\x80?\x00\x00\x00\x00\x00\x00\x00\x00'
p3551
tp3552
bag19
(g20
(I0
tp3553
g22
tp3554
Rp3555
(I1
(I5
tp3556
g2876
I00
S'\x00\x00\x00\x00\x00\x00\x00\x00\x00\x00\x00\x00\x00\x00\x00\x00\x00\x00\x80?'
p3557
tp3558
bag19
(g20
(I0
tp3559
g22
tp3560
Rp3561
(I1
(I5
tp3562
g2876
I00
S'\x00\x00\x00\x00\x00\x00\x00\x00\x00\x00\x00\x00\x00\x00\x00\x00\x00\x00\x80?'
p3563
tp3564
bag19
(g20
(I0
tp3565
g22
tp3566
Rp3567
(I1
(I5
tp3568
g2876
I00
S'\x00\x00\x80?\x00\x00\x00\x00\x00\x00\x00\x00\x00\x00\x00\x00\x00\x00\x00\x00'
p3569
tp3570
bag19
(g20
(I0
tp3571
g22
tp3572
Rp3573
(I1
(I5
tp3574
g2876
I00
S'\x00\x00\x00\x00\x00\x00\x00\x00\x00\x00\x00\x00\x00\x00\x00\x00\x00\x00\x80?'
p3575
tp3576
bag19
(g20
(I0
tp3577
g22
tp3578
Rp3579
(I1
(I5
tp3580
g2876
I00
S'\x00\x00\x00\x00\x00\x00\x00\x00\x00\x00\x80?\x00\x00\x00\x00\x00\x00\x00\x00'
p3581
tp3582
bag19
(g20
(I0
tp3583
g22
tp3584
Rp3585
(I1
(I5
tp3586
g2876
I00
S'\x00\x00\x00\x00\x00\x00\x80?\x00\x00\x00\x00\x00\x00\x00\x00\x00\x00\x00\x00'
p3587
tp3588
bag19
(g20
(I0
tp3589
g22
tp3590
Rp3591
(I1
(I5
tp3592
g2876
I00
S'\x00\x00\x00\x00\x00\x00\x00\x00\x00\x00\x00\x00\x00\x00\x00\x00\x00\x00\x80?'
p3593
tp3594
bag19
(g20
(I0
tp3595
g22
tp3596
Rp3597
(I1
(I5
tp3598
g2876
I00
S'\x00\x00\x00\x00\x00\x00\x00\x00\x00\x00\x80?\x00\x00\x00\x00\x00\x00\x00\x00'
p3599
tp3600
bag19
(g20
(I0
tp3601
g22
tp3602
Rp3603
(I1
(I5
tp3604
g2876
I00
S'\x00\x00\x00\x00\x00\x00\x00\x00\x00\x00\x00\x00\x00\x00\x00\x00\x00\x00\x80?'
p3605
tp3606
bag19
(g20
(I0
tp3607
g22
tp3608
Rp3609
(I1
(I5
tp3610
g2876
I00
S'\x00\x00\x00\x00\x00\x00\x80?\x00\x00\x00\x00\x00\x00\x00\x00\x00\x00\x00\x00'
p3611
tp3612
bag19
(g20
(I0
tp3613
g22
tp3614
Rp3615
(I1
(I5
tp3616
g2876
I00
S'\x00\x00\x00\x00\x00\x00\x00\x00\x00\x00\x00\x00\x00\x00\x80?\x00\x00\x00\x00'
p3617
tp3618
bag19
(g20
(I0
tp3619
g22
tp3620
Rp3621
(I1
(I5
tp3622
g2876
I00
S'\x00\x00\x00\x00\x00\x00\x00\x00\x00\x00\x00\x00\x00\x00\x00\x00\x00\x00\x80?'
p3623
tp3624
bag19
(g20
(I0
tp3625
g22
tp3626
Rp3627
(I1
(I5
tp3628
g2876
I00
S'\x00\x00\x00\x00\x00\x00\x80?\x00\x00\x00\x00\x00\x00\x00\x00\x00\x00\x00\x00'
p3629
tp3630
bag19
(g20
(I0
tp3631
g22
tp3632
Rp3633
(I1
(I5
tp3634
g2876
I00
S'\x00\x00\x00\x00\x00\x00\x80?\x00\x00\x00\x00\x00\x00\x00\x00\x00\x00\x00\x00'
p3635
tp3636
bag19
(g20
(I0
tp3637
g22
tp3638
Rp3639
(I1
(I5
tp3640
g2876
I00
S'\x00\x00\x80?\x00\x00\x00\x00\x00\x00\x00\x00\x00\x00\x00\x00\x00\x00\x00\x00'
p3641
tp3642
bag19
(g20
(I0
tp3643
g22
tp3644
Rp3645
(I1
(I5
tp3646
g2876
I00
S'\x00\x00\x00\x00\x00\x00\x00\x00\x00\x00\x00\x00\x00\x00\x00\x00\x00\x00\x80?'
p3647
tp3648
bag19
(g20
(I0
tp3649
g22
tp3650
Rp3651
(I1
(I5
tp3652
g2876
I00
S'\x00\x00\x00\x00\x00\x00\x00\x00\x00\x00\x00\x00\x00\x00\x80?\x00\x00\x00\x00'
p3653
tp3654
bag19
(g20
(I0
tp3655
g22
tp3656
Rp3657
(I1
(I5
tp3658
g2876
I00
S'\x00\x00\x80?\x00\x00\x00\x00\x00\x00\x00\x00\x00\x00\x00\x00\x00\x00\x00\x00'
p3659
tp3660
bag19
(g20
(I0
tp3661
g22
tp3662
Rp3663
(I1
(I5
tp3664
g2876
I00
S'\x00\x00\x00\x00\x00\x00\x00\x00\x00\x00\x80?\x00\x00\x00\x00\x00\x00\x00\x00'
p3665
tp3666
bag19
(g20
(I0
tp3667
g22
tp3668
Rp3669
(I1
(I5
tp3670
g2876
I00
S'\x00\x00\x00\x00\x00\x00\x00\x00\x00\x00\x00\x00\x00\x00\x00\x00\x00\x00\x80?'
p3671
tp3672
bag19
(g20
(I0
tp3673
g22
tp3674
Rp3675
(I1
(I5
tp3676
g2876
I00
S'\x00\x00\x00\x00\x00\x00\x00\x00\x00\x00\x80?\x00\x00\x00\x00\x00\x00\x00\x00'
p3677
tp3678
bag19
(g20
(I0
tp3679
g22
tp3680
Rp3681
(I1
(I5
tp3682
g2876
I00
S'\x00\x00\x00\x00\x00\x00\x80?\x00\x00\x00\x00\x00\x00\x00\x00\x00\x00\x00\x00'
p3683
tp3684
bag19
(g20
(I0
tp3685
g22
tp3686
Rp3687
(I1
(I5
tp3688
g2876
I00
S'\x00\x00\x00\x00\x00\x00\x00\x00\x00\x00\x80?\x00\x00\x00\x00\x00\x00\x00\x00'
p3689
tp3690
bag19
(g20
(I0
tp3691
g22
tp3692
Rp3693
(I1
(I5
tp3694
g2876
I00
S'\x00\x00\x00\x00\x00\x00\x00\x00\x00\x00\x80?\x00\x00\x00\x00\x00\x00\x00\x00'
p3695
tp3696
bag19
(g20
(I0
tp3697
g22
tp3698
Rp3699
(I1
(I5
tp3700
g2876
I00
S'\x00\x00\x00\x00\x00\x00\x00\x00\x00\x00\x80?\x00\x00\x00\x00\x00\x00\x00\x00'
p3701
tp3702
bag19
(g20
(I0
tp3703
g22
tp3704
Rp3705
(I1
(I5
tp3706
g2876
I00
S'\x00\x00\x00\x00\x00\x00\x00\x00\x00\x00\x00\x00\x00\x00\x80?\x00\x00\x00\x00'
p3707
tp3708
bag19
(g20
(I0
tp3709
g22
tp3710
Rp3711
(I1
(I5
tp3712
g2876
I00
S'\x00\x00\x00\x00\x00\x00\x80?\x00\x00\x00\x00\x00\x00\x00\x00\x00\x00\x00\x00'
p3713
tp3714
bag19
(g20
(I0
tp3715
g22
tp3716
Rp3717
(I1
(I5
tp3718
g2876
I00
S'\x00\x00\x00\x00\x00\x00\x00\x00\x00\x00\x80?\x00\x00\x00\x00\x00\x00\x00\x00'
p3719
tp3720
bag19
(g20
(I0
tp3721
g22
tp3722
Rp3723
(I1
(I5
tp3724
g2876
I00
S'\x00\x00\x00\x00\x00\x00\x80?\x00\x00\x00\x00\x00\x00\x00\x00\x00\x00\x00\x00'
p3725
tp3726
bag19
(g20
(I0
tp3727
g22
tp3728
Rp3729
(I1
(I5
tp3730
g2876
I00
S'\x00\x00\x00\x00\x00\x00\x80?\x00\x00\x00\x00\x00\x00\x00\x00\x00\x00\x00\x00'
p3731
tp3732
bag19
(g20
(I0
tp3733
g22
tp3734
Rp3735
(I1
(I5
tp3736
g2876
I00
S'\x00\x00\x00\x00\x00\x00\x00\x00\x00\x00\x80?\x00\x00\x00\x00\x00\x00\x00\x00'
p3737
tp3738
bag19
(g20
(I0
tp3739
g22
tp3740
Rp3741
(I1
(I5
tp3742
g2876
I00
S'\x00\x00\x00\x00\x00\x00\x00\x00\x00\x00\x80?\x00\x00\x00\x00\x00\x00\x00\x00'
p3743
tp3744
bag19
(g20
(I0
tp3745
g22
tp3746
Rp3747
(I1
(I5
tp3748
g2876
I00
S'\x00\x00\x00\x00\x00\x00\x00\x00\x00\x00\x00\x00\x00\x00\x80?\x00\x00\x00\x00'
p3749
tp3750
bag19
(g20
(I0
tp3751
g22
tp3752
Rp3753
(I1
(I5
tp3754
g2876
I00
S'\x00\x00\x00\x00\x00\x00\x80?\x00\x00\x00\x00\x00\x00\x00\x00\x00\x00\x00\x00'
p3755
tp3756
bag19
(g20
(I0
tp3757
g22
tp3758
Rp3759
(I1
(I5
tp3760
g2876
I00
S'\x00\x00\x00\x00\x00\x00\x00\x00\x00\x00\x00\x00\x00\x00\x80?\x00\x00\x00\x00'
p3761
tp3762
bag19
(g20
(I0
tp3763
g22
tp3764
Rp3765
(I1
(I5
tp3766
g2876
I00
S'\x00\x00\x00\x00\x00\x00\x00\x00\x00\x00\x80?\x00\x00\x00\x00\x00\x00\x00\x00'
p3767
tp3768
bag19
(g20
(I0
tp3769
g22
tp3770
Rp3771
(I1
(I5
tp3772
g2876
I00
S'\x00\x00\x00\x00\x00\x00\x00\x00\x00\x00\x80?\x00\x00\x00\x00\x00\x00\x00\x00'
p3773
tp3774
bag19
(g20
(I0
tp3775
g22
tp3776
Rp3777
(I1
(I5
tp3778
g2876
I00
S'\x00\x00\x80?\x00\x00\x00\x00\x00\x00\x00\x00\x00\x00\x00\x00\x00\x00\x00\x00'
p3779
tp3780
bag19
(g20
(I0
tp3781
g22
tp3782
Rp3783
(I1
(I5
tp3784
g2876
I00
S'\x00\x00\x00\x00\x00\x00\x80?\x00\x00\x00\x00\x00\x00\x00\x00\x00\x00\x00\x00'
p3785
tp3786
bag19
(g20
(I0
tp3787
g22
tp3788
Rp3789
(I1
(I5
tp3790
g2876
I00
S'\x00\x00\x00\x00\x00\x00\x00\x00\x00\x00\x80?\x00\x00\x00\x00\x00\x00\x00\x00'
p3791
tp3792
bag19
(g20
(I0
tp3793
g22
tp3794
Rp3795
(I1
(I5
tp3796
g2876
I00
S'\x00\x00\x00\x00\x00\x00\x00\x00\x00\x00\x00\x00\x00\x00\x80?\x00\x00\x00\x00'
p3797
tp3798
bag19
(g20
(I0
tp3799
g22
tp3800
Rp3801
(I1
(I5
tp3802
g2876
I00
S'\x00\x00\x00\x00\x00\x00\x00\x00\x00\x00\x00\x00\x00\x00\x00\x00\x00\x00\x80?'
p3803
tp3804
bag19
(g20
(I0
tp3805
g22
tp3806
Rp3807
(I1
(I5
tp3808
g2876
I00
S'\x00\x00\x80?\x00\x00\x00\x00\x00\x00\x00\x00\x00\x00\x00\x00\x00\x00\x00\x00'
p3809
tp3810
bag19
(g20
(I0
tp3811
g22
tp3812
Rp3813
(I1
(I5
tp3814
g2876
I00
S'\x00\x00\x00\x00\x00\x00\x00\x00\x00\x00\x00\x00\x00\x00\x80?\x00\x00\x00\x00'
p3815
tp3816
bag19
(g20
(I0
tp3817
g22
tp3818
Rp3819
(I1
(I5
tp3820
g2876
I00
S'\x00\x00\x00\x00\x00\x00\x80?\x00\x00\x00\x00\x00\x00\x00\x00\x00\x00\x00\x00'
p3821
tp3822
bag19
(g20
(I0
tp3823
g22
tp3824
Rp3825
(I1
(I5
tp3826
g2876
I00
S'\x00\x00\x00\x00\x00\x00\x00\x00\x00\x00\x80?\x00\x00\x00\x00\x00\x00\x00\x00'
p3827
tp3828
bag19
(g20
(I0
tp3829
g22
tp3830
Rp3831
(I1
(I5
tp3832
g2876
I00
S'\x00\x00\x00\x00\x00\x00\x00\x00\x00\x00\x80?\x00\x00\x00\x00\x00\x00\x00\x00'
p3833
tp3834
bag19
(g20
(I0
tp3835
g22
tp3836
Rp3837
(I1
(I5
tp3838
g2876
I00
S'\x00\x00\x00\x00\x00\x00\x80?\x00\x00\x00\x00\x00\x00\x00\x00\x00\x00\x00\x00'
p3839
tp3840
bag19
(g20
(I0
tp3841
g22
tp3842
Rp3843
(I1
(I5
tp3844
g2876
I00
S'\x00\x00\x00\x00\x00\x00\x00\x00\x00\x00\x80?\x00\x00\x00\x00\x00\x00\x00\x00'
p3845
tp3846
bag19
(g20
(I0
tp3847
g22
tp3848
Rp3849
(I1
(I5
tp3850
g2876
I00
S'\x00\x00\x00\x00\x00\x00\x00\x00\x00\x00\x80?\x00\x00\x00\x00\x00\x00\x00\x00'
p3851
tp3852
bag19
(g20
(I0
tp3853
g22
tp3854
Rp3855
(I1
(I5
tp3856
g2876
I00
S'\x00\x00\x00\x00\x00\x00\x00\x00\x00\x00\x00\x00\x00\x00\x00\x00\x00\x00\x80?'
p3857
tp3858
bag19
(g20
(I0
tp3859
g22
tp3860
Rp3861
(I1
(I5
tp3862
g2876
I00
S'\x00\x00\x00\x00\x00\x00\x00\x00\x00\x00\x80?\x00\x00\x00\x00\x00\x00\x00\x00'
p3863
tp3864
bag19
(g20
(I0
tp3865
g22
tp3866
Rp3867
(I1
(I5
tp3868
g2876
I00
S'\x00\x00\x00\x00\x00\x00\x00\x00\x00\x00\x80?\x00\x00\x00\x00\x00\x00\x00\x00'
p3869
tp3870
bag19
(g20
(I0
tp3871
g22
tp3872
Rp3873
(I1
(I5
tp3874
g2876
I00
S'\x00\x00\x80?\x00\x00\x00\x00\x00\x00\x00\x00\x00\x00\x00\x00\x00\x00\x00\x00'
p3875
tp3876
bag19
(g20
(I0
tp3877
g22
tp3878
Rp3879
(I1
(I5
tp3880
g2876
I00
S'\x00\x00\x00\x00\x00\x00\x80?\x00\x00\x00\x00\x00\x00\x00\x00\x00\x00\x00\x00'
p3881
tp3882
bag19
(g20
(I0
tp3883
g22
tp3884
Rp3885
(I1
(I5
tp3886
g2876
I00
S'\x00\x00\x00\x00\x00\x00\x80?\x00\x00\x00\x00\x00\x00\x00\x00\x00\x00\x00\x00'
p3887
tp3888
bag19
(g20
(I0
tp3889
g22
tp3890
Rp3891
(I1
(I5
tp3892
g2876
I00
S'\x00\x00\x00\x00\x00\x00\x00\x00\x00\x00\x00\x00\x00\x00\x00\x00\x00\x00\x80?'
p3893
tp3894
bag19
(g20
(I0
tp3895
g22
tp3896
Rp3897
(I1
(I5
tp3898
g2876
I00
S'\x00\x00\x00\x00\x00\x00\x00\x00\x00\x00\x00\x00\x00\x00\x00\x00\x00\x00\x80?'
p3899
tp3900
bag19
(g20
(I0
tp3901
g22
tp3902
Rp3903
(I1
(I5
tp3904
g2876
I00
S'\x00\x00\x00\x00\x00\x00\x00\x00\x00\x00\x00\x00\x00\x00\x80?\x00\x00\x00\x00'
p3905
tp3906
bag19
(g20
(I0
tp3907
g22
tp3908
Rp3909
(I1
(I5
tp3910
g2876
I00
S'\x00\x00\x00\x00\x00\x00\x80?\x00\x00\x00\x00\x00\x00\x00\x00\x00\x00\x00\x00'
p3911
tp3912
bag19
(g20
(I0
tp3913
g22
tp3914
Rp3915
(I1
(I5
tp3916
g2876
I00
S'\x00\x00\x80?\x00\x00\x00\x00\x00\x00\x00\x00\x00\x00\x00\x00\x00\x00\x00\x00'
p3917
tp3918
bag19
(g20
(I0
tp3919
g22
tp3920
Rp3921
(I1
(I5
tp3922
g2876
I00
S'\x00\x00\x00\x00\x00\x00\x80?\x00\x00\x00\x00\x00\x00\x00\x00\x00\x00\x00\x00'
p3923
tp3924
bag19
(g20
(I0
tp3925
g22
tp3926
Rp3927
(I1
(I5
tp3928
g2876
I00
S'\x00\x00\x80?\x00\x00\x00\x00\x00\x00\x00\x00\x00\x00\x00\x00\x00\x00\x00\x00'
p3929
tp3930
bag19
(g20
(I0
tp3931
g22
tp3932
Rp3933
(I1
(I5
tp3934
g2876
I00
S'\x00\x00\x00\x00\x00\x00\x00\x00\x00\x00\x00\x00\x00\x00\x00\x00\x00\x00\x80?'
p3935
tp3936
bag19
(g20
(I0
tp3937
g22
tp3938
Rp3939
(I1
(I5
tp3940
g2876
I00
S'\x00\x00\x00\x00\x00\x00\x00\x00\x00\x00\x00\x00\x00\x00\x00\x00\x00\x00\x80?'
p3941
tp3942
bag19
(g20
(I0
tp3943
g22
tp3944
Rp3945
(I1
(I5
tp3946
g2876
I00
S'\x00\x00\x00\x00\x00\x00\x00\x00\x00\x00\x00\x00\x00\x00\x80?\x00\x00\x00\x00'
p3947
tp3948
bag19
(g20
(I0
tp3949
g22
tp3950
Rp3951
(I1
(I5
tp3952
g2876
I00
S'\x00\x00\x00\x00\x00\x00\x00\x00\x00\x00\x00\x00\x00\x00\x00\x00\x00\x00\x80?'
p3953
tp3954
bag19
(g20
(I0
tp3955
g22
tp3956
Rp3957
(I1
(I5
tp3958
g2876
I00
S'\x00\x00\x00\x00\x00\x00\x00\x00\x00\x00\x00\x00\x00\x00\x80?\x00\x00\x00\x00'
p3959
tp3960
bag19
(g20
(I0
tp3961
g22
tp3962
Rp3963
(I1
(I5
tp3964
g2876
I00
S'\x00\x00\x80?\x00\x00\x00\x00\x00\x00\x00\x00\x00\x00\x00\x00\x00\x00\x00\x00'
p3965
tp3966
bag19
(g20
(I0
tp3967
g22
tp3968
Rp3969
(I1
(I5
tp3970
g2876
I00
S'\x00\x00\x00\x00\x00\x00\x00\x00\x00\x00\x80?\x00\x00\x00\x00\x00\x00\x00\x00'
p3971
tp3972
bag19
(g20
(I0
tp3973
g22
tp3974
Rp3975
(I1
(I5
tp3976
g2876
I00
S'\x00\x00\x00\x00\x00\x00\x00\x00\x00\x00\x00\x00\x00\x00\x80?\x00\x00\x00\x00'
p3977
tp3978
bag19
(g20
(I0
tp3979
g22
tp3980
Rp3981
(I1
(I5
tp3982
g2876
I00
S'\x00\x00\x80?\x00\x00\x00\x00\x00\x00\x00\x00\x00\x00\x00\x00\x00\x00\x00\x00'
p3983
tp3984
bag19
(g20
(I0
tp3985
g22
tp3986
Rp3987
(I1
(I5
tp3988
g2876
I00
S'\x00\x00\x80?\x00\x00\x00\x00\x00\x00\x00\x00\x00\x00\x00\x00\x00\x00\x00\x00'
p3989
tp3990
bag19
(g20
(I0
tp3991
g22
tp3992
Rp3993
(I1
(I5
tp3994
g2876
I00
S'\x00\x00\x80?\x00\x00\x00\x00\x00\x00\x00\x00\x00\x00\x00\x00\x00\x00\x00\x00'
p3995
tp3996
bag19
(g20
(I0
tp3997
g22
tp3998
Rp3999
(I1
(I5
tp4000
g2876
I00
S'\x00\x00\x00\x00\x00\x00\x80?\x00\x00\x00\x00\x00\x00\x00\x00\x00\x00\x00\x00'
p4001
tp4002
bag19
(g20
(I0
tp4003
g22
tp4004
Rp4005
(I1
(I5
tp4006
g2876
I00
S'\x00\x00\x00\x00\x00\x00\x80?\x00\x00\x00\x00\x00\x00\x00\x00\x00\x00\x00\x00'
p4007
tp4008
bag19
(g20
(I0
tp4009
g22
tp4010
Rp4011
(I1
(I5
tp4012
g2876
I00
S'\x00\x00\x80?\x00\x00\x00\x00\x00\x00\x00\x00\x00\x00\x00\x00\x00\x00\x00\x00'
p4013
tp4014
bag19
(g20
(I0
tp4015
g22
tp4016
Rp4017
(I1
(I5
tp4018
g2876
I00
S'\x00\x00\x00\x00\x00\x00\x00\x00\x00\x00\x00\x00\x00\x00\x80?\x00\x00\x00\x00'
p4019
tp4020
bag19
(g20
(I0
tp4021
g22
tp4022
Rp4023
(I1
(I5
tp4024
g2876
I00
S'\x00\x00\x00\x00\x00\x00\x00\x00\x00\x00\x00\x00\x00\x00\x80?\x00\x00\x00\x00'
p4025
tp4026
bag19
(g20
(I0
tp4027
g22
tp4028
Rp4029
(I1
(I5
tp4030
g2876
I00
S'\x00\x00\x00\x00\x00\x00\x00\x00\x00\x00\x00\x00\x00\x00\x00\x00\x00\x00\x80?'
p4031
tp4032
bag19
(g20
(I0
tp4033
g22
tp4034
Rp4035
(I1
(I5
tp4036
g2876
I00
S'\x00\x00\x00\x00\x00\x00\x80?\x00\x00\x00\x00\x00\x00\x00\x00\x00\x00\x00\x00'
p4037
tp4038
bag19
(g20
(I0
tp4039
g22
tp4040
Rp4041
(I1
(I5
tp4042
g2876
I00
S'\x00\x00\x80?\x00\x00\x00\x00\x00\x00\x00\x00\x00\x00\x00\x00\x00\x00\x00\x00'
p4043
tp4044
bag19
(g20
(I0
tp4045
g22
tp4046
Rp4047
(I1
(I5
tp4048
g2876
I00
S'\x00\x00\x80?\x00\x00\x00\x00\x00\x00\x00\x00\x00\x00\x00\x00\x00\x00\x00\x00'
p4049
tp4050
bag19
(g20
(I0
tp4051
g22
tp4052
Rp4053
(I1
(I5
tp4054
g2876
I00
S'\x00\x00\x00\x00\x00\x00\x00\x00\x00\x00\x00\x00\x00\x00\x00\x00\x00\x00\x80?'
p4055
tp4056
bag19
(g20
(I0
tp4057
g22
tp4058
Rp4059
(I1
(I5
tp4060
g2876
I00
S'\x00\x00\x00\x00\x00\x00\x00\x00\x00\x00\x00\x00\x00\x00\x80?\x00\x00\x00\x00'
p4061
tp4062
bag19
(g20
(I0
tp4063
g22
tp4064
Rp4065
(I1
(I5
tp4066
g2876
I00
S'\x00\x00\x00\x00\x00\x00\x00\x00\x00\x00\x00\x00\x00\x00\x00\x00\x00\x00\x80?'
p4067
tp4068
bag19
(g20
(I0
tp4069
g22
tp4070
Rp4071
(I1
(I5
tp4072
g2876
I00
S'\x00\x00\x00\x00\x00\x00\x00\x00\x00\x00\x00\x00\x00\x00\x00\x00\x00\x00\x80?'
p4073
tp4074
bag19
(g20
(I0
tp4075
g22
tp4076
Rp4077
(I1
(I5
tp4078
g2876
I00
S'\x00\x00\x00\x00\x00\x00\x00\x00\x00\x00\x80?\x00\x00\x00\x00\x00\x00\x00\x00'
p4079
tp4080
bag19
(g20
(I0
tp4081
g22
tp4082
Rp4083
(I1
(I5
tp4084
g2876
I00
S'\x00\x00\x00\x00\x00\x00\x00\x00\x00\x00\x00\x00\x00\x00\x80?\x00\x00\x00\x00'
p4085
tp4086
bag19
(g20
(I0
tp4087
g22
tp4088
Rp4089
(I1
(I5
tp4090
g2876
I00
S'\x00\x00\x00\x00\x00\x00\x00\x00\x00\x00\x80?\x00\x00\x00\x00\x00\x00\x00\x00'
p4091
tp4092
bag19
(g20
(I0
tp4093
g22
tp4094
Rp4095
(I1
(I5
tp4096
g2876
I00
S'\x00\x00\x00\x00\x00\x00\x80?\x00\x00\x00\x00\x00\x00\x00\x00\x00\x00\x00\x00'
p4097
tp4098
bag19
(g20
(I0
tp4099
g22
tp4100
Rp4101
(I1
(I5
tp4102
g2876
I00
S'\x00\x00\x00\x00\x00\x00\x00\x00\x00\x00\x80?\x00\x00\x00\x00\x00\x00\x00\x00'
p4103
tp4104
bag19
(g20
(I0
tp4105
g22
tp4106
Rp4107
(I1
(I5
tp4108
g2876
I00
S'\x00\x00\x00\x00\x00\x00\x00\x00\x00\x00\x00\x00\x00\x00\x80?\x00\x00\x00\x00'
p4109
tp4110
bag19
(g20
(I0
tp4111
g22
tp4112
Rp4113
(I1
(I5
tp4114
g2876
I00
S'\x00\x00\x00\x00\x00\x00\x00\x00\x00\x00\x80?\x00\x00\x00\x00\x00\x00\x00\x00'
p4115
tp4116
bag19
(g20
(I0
tp4117
g22
tp4118
Rp4119
(I1
(I5
tp4120
g2876
I00
S'\x00\x00\x80?\x00\x00\x00\x00\x00\x00\x00\x00\x00\x00\x00\x00\x00\x00\x00\x00'
p4121
tp4122
bag19
(g20
(I0
tp4123
g22
tp4124
Rp4125
(I1
(I5
tp4126
g2876
I00
S'\x00\x00\x00\x00\x00\x00\x00\x00\x00\x00\x80?\x00\x00\x00\x00\x00\x00\x00\x00'
p4127
tp4128
bag19
(g20
(I0
tp4129
g22
tp4130
Rp4131
(I1
(I5
tp4132
g2876
I00
S'\x00\x00\x80?\x00\x00\x00\x00\x00\x00\x00\x00\x00\x00\x00\x00\x00\x00\x00\x00'
p4133
tp4134
bag19
(g20
(I0
tp4135
g22
tp4136
Rp4137
(I1
(I5
tp4138
g2876
I00
S'\x00\x00\x00\x00\x00\x00\x00\x00\x00\x00\x00\x00\x00\x00\x80?\x00\x00\x00\x00'
p4139
tp4140
bag19
(g20
(I0
tp4141
g22
tp4142
Rp4143
(I1
(I5
tp4144
g2876
I00
S'\x00\x00\x00\x00\x00\x00\x00\x00\x00\x00\x00\x00\x00\x00\x00\x00\x00\x00\x80?'
p4145
tp4146
bag19
(g20
(I0
tp4147
g22
tp4148
Rp4149
(I1
(I5
tp4150
g2876
I00
S'\x00\x00\x80?\x00\x00\x00\x00\x00\x00\x00\x00\x00\x00\x00\x00\x00\x00\x00\x00'
p4151
tp4152
bag19
(g20
(I0
tp4153
g22
tp4154
Rp4155
(I1
(I5
tp4156
g2876
I00
S'\x00\x00\x80?\x00\x00\x00\x00\x00\x00\x00\x00\x00\x00\x00\x00\x00\x00\x00\x00'
p4157
tp4158
bag19
(g20
(I0
tp4159
g22
tp4160
Rp4161
(I1
(I5
tp4162
g2876
I00
S'\x00\x00\x80?\x00\x00\x00\x00\x00\x00\x00\x00\x00\x00\x00\x00\x00\x00\x00\x00'
p4163
tp4164
bag19
(g20
(I0
tp4165
g22
tp4166
Rp4167
(I1
(I5
tp4168
g2876
I00
S'\x00\x00\x80?\x00\x00\x00\x00\x00\x00\x00\x00\x00\x00\x00\x00\x00\x00\x00\x00'
p4169
tp4170
bag19
(g20
(I0
tp4171
g22
tp4172
Rp4173
(I1
(I5
tp4174
g2876
I00
S'\x00\x00\x00\x00\x00\x00\x00\x00\x00\x00\x80?\x00\x00\x00\x00\x00\x00\x00\x00'
p4175
tp4176
bag19
(g20
(I0
tp4177
g22
tp4178
Rp4179
(I1
(I5
tp4180
g2876
I00
S'\x00\x00\x00\x00\x00\x00\x00\x00\x00\x00\x00\x00\x00\x00\x00\x00\x00\x00\x80?'
p4181
tp4182
bag19
(g20
(I0
tp4183
g22
tp4184
Rp4185
(I1
(I5
tp4186
g2876
I00
S'\x00\x00\x00\x00\x00\x00\x00\x00\x00\x00\x80?\x00\x00\x00\x00\x00\x00\x00\x00'
p4187
tp4188
bag19
(g20
(I0
tp4189
g22
tp4190
Rp4191
(I1
(I5
tp4192
g2876
I00
S'\x00\x00\x00\x00\x00\x00\x00\x00\x00\x00\x00\x00\x00\x00\x80?\x00\x00\x00\x00'
p4193
tp4194
bag19
(g20
(I0
tp4195
g22
tp4196
Rp4197
(I1
(I5
tp4198
g2876
I00
S'\x00\x00\x00\x00\x00\x00\x80?\x00\x00\x00\x00\x00\x00\x00\x00\x00\x00\x00\x00'
p4199
tp4200
bag19
(g20
(I0
tp4201
g22
tp4202
Rp4203
(I1
(I5
tp4204
g2876
I00
S'\x00\x00\x00\x00\x00\x00\x00\x00\x00\x00\x80?\x00\x00\x00\x00\x00\x00\x00\x00'
p4205
tp4206
bag19
(g20
(I0
tp4207
g22
tp4208
Rp4209
(I1
(I5
tp4210
g2876
I00
S'\x00\x00\x00\x00\x00\x00\x80?\x00\x00\x00\x00\x00\x00\x00\x00\x00\x00\x00\x00'
p4211
tp4212
bag19
(g20
(I0
tp4213
g22
tp4214
Rp4215
(I1
(I5
tp4216
g2876
I00
S'\x00\x00\x00\x00\x00\x00\x00\x00\x00\x00\x00\x00\x00\x00\x00\x00\x00\x00\x80?'
p4217
tp4218
bag19
(g20
(I0
tp4219
g22
tp4220
Rp4221
(I1
(I5
tp4222
g2876
I00
S'\x00\x00\x00\x00\x00\x00\x00\x00\x00\x00\x80?\x00\x00\x00\x00\x00\x00\x00\x00'
p4223
tp4224
bag19
(g20
(I0
tp4225
g22
tp4226
Rp4227
(I1
(I5
tp4228
g2876
I00
S'\x00\x00\x00\x00\x00\x00\x00\x00\x00\x00\x00\x00\x00\x00\x00\x00\x00\x00\x80?'
p4229
tp4230
bag19
(g20
(I0
tp4231
g22
tp4232
Rp4233
(I1
(I5
tp4234
g2876
I00
S'\x00\x00\x00\x00\x00\x00\x00\x00\x00\x00\x00\x00\x00\x00\x00\x00\x00\x00\x80?'
p4235
tp4236
bag19
(g20
(I0
tp4237
g22
tp4238
Rp4239
(I1
(I5
tp4240
g2876
I00
S'\x00\x00\x00\x00\x00\x00\x00\x00\x00\x00\x00\x00\x00\x00\x00\x00\x00\x00\x80?'
p4241
tp4242
bag19
(g20
(I0
tp4243
g22
tp4244
Rp4245
(I1
(I5
tp4246
g2876
I00
S'\x00\x00\x00\x00\x00\x00\x80?\x00\x00\x00\x00\x00\x00\x00\x00\x00\x00\x00\x00'
p4247
tp4248
bag19
(g20
(I0
tp4249
g22
tp4250
Rp4251
(I1
(I5
tp4252
g2876
I00
S'\x00\x00\x00\x00\x00\x00\x80?\x00\x00\x00\x00\x00\x00\x00\x00\x00\x00\x00\x00'
p4253
tp4254
bag19
(g20
(I0
tp4255
g22
tp4256
Rp4257
(I1
(I5
tp4258
g2876
I00
S'\x00\x00\x80?\x00\x00\x00\x00\x00\x00\x00\x00\x00\x00\x00\x00\x00\x00\x00\x00'
p4259
tp4260
bag19
(g20
(I0
tp4261
g22
tp4262
Rp4263
(I1
(I5
tp4264
g2876
I00
S'\x00\x00\x00\x00\x00\x00\x00\x00\x00\x00\x80?\x00\x00\x00\x00\x00\x00\x00\x00'
p4265
tp4266
bag19
(g20
(I0
tp4267
g22
tp4268
Rp4269
(I1
(I5
tp4270
g2876
I00
S'\x00\x00\x80?\x00\x00\x00\x00\x00\x00\x00\x00\x00\x00\x00\x00\x00\x00\x00\x00'
p4271
tp4272
bag19
(g20
(I0
tp4273
g22
tp4274
Rp4275
(I1
(I5
tp4276
g2876
I00
S'\x00\x00\x00\x00\x00\x00\x00\x00\x00\x00\x80?\x00\x00\x00\x00\x00\x00\x00\x00'
p4277
tp4278
bag19
(g20
(I0
tp4279
g22
tp4280
Rp4281
(I1
(I5
tp4282
g2876
I00
S'\x00\x00\x00\x00\x00\x00\x00\x00\x00\x00\x00\x00\x00\x00\x00\x00\x00\x00\x80?'
p4283
tp4284
bag19
(g20
(I0
tp4285
g22
tp4286
Rp4287
(I1
(I5
tp4288
g2876
I00
S'\x00\x00\x00\x00\x00\x00\x00\x00\x00\x00\x80?\x00\x00\x00\x00\x00\x00\x00\x00'
p4289
tp4290
bag19
(g20
(I0
tp4291
g22
tp4292
Rp4293
(I1
(I5
tp4294
g2876
I00
S'\x00\x00\x00\x00\x00\x00\x80?\x00\x00\x00\x00\x00\x00\x00\x00\x00\x00\x00\x00'
p4295
tp4296
bag19
(g20
(I0
tp4297
g22
tp4298
Rp4299
(I1
(I5
tp4300
g2876
I00
S'\x00\x00\x00\x00\x00\x00\x80?\x00\x00\x00\x00\x00\x00\x00\x00\x00\x00\x00\x00'
p4301
tp4302
bag19
(g20
(I0
tp4303
g22
tp4304
Rp4305
(I1
(I5
tp4306
g2876
I00
S'\x00\x00\x80?\x00\x00\x00\x00\x00\x00\x00\x00\x00\x00\x00\x00\x00\x00\x00\x00'
p4307
tp4308
bag19
(g20
(I0
tp4309
g22
tp4310
Rp4311
(I1
(I5
tp4312
g2876
I00
S'\x00\x00\x00\x00\x00\x00\x00\x00\x00\x00\x00\x00\x00\x00\x80?\x00\x00\x00\x00'
p4313
tp4314
bag19
(g20
(I0
tp4315
g22
tp4316
Rp4317
(I1
(I5
tp4318
g2876
I00
S'\x00\x00\x00\x00\x00\x00\x00\x00\x00\x00\x00\x00\x00\x00\x00\x00\x00\x00\x80?'
p4319
tp4320
bag19
(g20
(I0
tp4321
g22
tp4322
Rp4323
(I1
(I5
tp4324
g2876
I00
S'\x00\x00\x00\x00\x00\x00\x00\x00\x00\x00\x80?\x00\x00\x00\x00\x00\x00\x00\x00'
p4325
tp4326
bag19
(g20
(I0
tp4327
g22
tp4328
Rp4329
(I1
(I5
tp4330
g2876
I00
S'\x00\x00\x80?\x00\x00\x00\x00\x00\x00\x00\x00\x00\x00\x00\x00\x00\x00\x00\x00'
p4331
tp4332
bag19
(g20
(I0
tp4333
g22
tp4334
Rp4335
(I1
(I5
tp4336
g2876
I00
S'\x00\x00\x00\x00\x00\x00\x00\x00\x00\x00\x80?\x00\x00\x00\x00\x00\x00\x00\x00'
p4337
tp4338
bag19
(g20
(I0
tp4339
g22
tp4340
Rp4341
(I1
(I5
tp4342
g2876
I00
S'\x00\x00\x80?\x00\x00\x00\x00\x00\x00\x00\x00\x00\x00\x00\x00\x00\x00\x00\x00'
p4343
tp4344
bag19
(g20
(I0
tp4345
g22
tp4346
Rp4347
(I1
(I5
tp4348
g2876
I00
S'\x00\x00\x00\x00\x00\x00\x80?\x00\x00\x00\x00\x00\x00\x00\x00\x00\x00\x00\x00'
p4349
tp4350
bag19
(g20
(I0
tp4351
g22
tp4352
Rp4353
(I1
(I5
tp4354
g2876
I00
S'\x00\x00\x00\x00\x00\x00\x80?\x00\x00\x00\x00\x00\x00\x00\x00\x00\x00\x00\x00'
p4355
tp4356
bag19
(g20
(I0
tp4357
g22
tp4358
Rp4359
(I1
(I5
tp4360
g2876
I00
S'\x00\x00\x00\x00\x00\x00\x80?\x00\x00\x00\x00\x00\x00\x00\x00\x00\x00\x00\x00'
p4361
tp4362
bag19
(g20
(I0
tp4363
g22
tp4364
Rp4365
(I1
(I5
tp4366
g2876
I00
S'\x00\x00\x80?\x00\x00\x00\x00\x00\x00\x00\x00\x00\x00\x00\x00\x00\x00\x00\x00'
p4367
tp4368
bag19
(g20
(I0
tp4369
g22
tp4370
Rp4371
(I1
(I5
tp4372
g2876
I00
S'\x00\x00\x00\x00\x00\x00\x00\x00\x00\x00\x80?\x00\x00\x00\x00\x00\x00\x00\x00'
p4373
tp4374
bag19
(g20
(I0
tp4375
g22
tp4376
Rp4377
(I1
(I5
tp4378
g2876
I00
S'\x00\x00\x00\x00\x00\x00\x00\x00\x00\x00\x00\x00\x00\x00\x80?\x00\x00\x00\x00'
p4379
tp4380
bag19
(g20
(I0
tp4381
g22
tp4382
Rp4383
(I1
(I5
tp4384
g2876
I00
S'\x00\x00\x00\x00\x00\x00\x00\x00\x00\x00\x80?\x00\x00\x00\x00\x00\x00\x00\x00'
p4385
tp4386
bag19
(g20
(I0
tp4387
g22
tp4388
Rp4389
(I1
(I5
tp4390
g2876
I00
S'\x00\x00\x80?\x00\x00\x00\x00\x00\x00\x00\x00\x00\x00\x00\x00\x00\x00\x00\x00'
p4391
tp4392
bag19
(g20
(I0
tp4393
g22
tp4394
Rp4395
(I1
(I5
tp4396
g2876
I00
S'\x00\x00\x80?\x00\x00\x00\x00\x00\x00\x00\x00\x00\x00\x00\x00\x00\x00\x00\x00'
p4397
tp4398
bag19
(g20
(I0
tp4399
g22
tp4400
Rp4401
(I1
(I5
tp4402
g2876
I00
S'\x00\x00\x00\x00\x00\x00\x00\x00\x00\x00\x00\x00\x00\x00\x00\x00\x00\x00\x80?'
p4403
tp4404
bag19
(g20
(I0
tp4405
g22
tp4406
Rp4407
(I1
(I5
tp4408
g2876
I00
S'\x00\x00\x00\x00\x00\x00\x00\x00\x00\x00\x80?\x00\x00\x00\x00\x00\x00\x00\x00'
p4409
tp4410
bag19
(g20
(I0
tp4411
g22
tp4412
Rp4413
(I1
(I5
tp4414
g2876
I00
S'\x00\x00\x00\x00\x00\x00\x00\x00\x00\x00\x80?\x00\x00\x00\x00\x00\x00\x00\x00'
p4415
tp4416
bag19
(g20
(I0
tp4417
g22
tp4418
Rp4419
(I1
(I5
tp4420
g2876
I00
S'\x00\x00\x00\x00\x00\x00\x00\x00\x00\x00\x80?\x00\x00\x00\x00\x00\x00\x00\x00'
p4421
tp4422
bag19
(g20
(I0
tp4423
g22
tp4424
Rp4425
(I1
(I5
tp4426
g2876
I00
S'\x00\x00\x00\x00\x00\x00\x00\x00\x00\x00\x00\x00\x00\x00\x00\x00\x00\x00\x80?'
p4427
tp4428
bag19
(g20
(I0
tp4429
g22
tp4430
Rp4431
(I1
(I5
tp4432
g2876
I00
S'\x00\x00\x00\x00\x00\x00\x00\x00\x00\x00\x00\x00\x00\x00\x80?\x00\x00\x00\x00'
p4433
tp4434
bag19
(g20
(I0
tp4435
g22
tp4436
Rp4437
(I1
(I5
tp4438
g2876
I00
S'\x00\x00\x80?\x00\x00\x00\x00\x00\x00\x00\x00\x00\x00\x00\x00\x00\x00\x00\x00'
p4439
tp4440
bag19
(g20
(I0
tp4441
g22
tp4442
Rp4443
(I1
(I5
tp4444
g2876
I00
S'\x00\x00\x00\x00\x00\x00\x00\x00\x00\x00\x80?\x00\x00\x00\x00\x00\x00\x00\x00'
p4445
tp4446
bag19
(g20
(I0
tp4447
g22
tp4448
Rp4449
(I1
(I5
tp4450
g2876
I00
S'\x00\x00\x00\x00\x00\x00\x00\x00\x00\x00\x00\x00\x00\x00\x80?\x00\x00\x00\x00'
p4451
tp4452
bag19
(g20
(I0
tp4453
g22
tp4454
Rp4455
(I1
(I5
tp4456
g2876
I00
S'\x00\x00\x00\x00\x00\x00\x00\x00\x00\x00\x00\x00\x00\x00\x00\x00\x00\x00\x80?'
p4457
tp4458
bag19
(g20
(I0
tp4459
g22
tp4460
Rp4461
(I1
(I5
tp4462
g2876
I00
S'\x00\x00\x00\x00\x00\x00\x00\x00\x00\x00\x80?\x00\x00\x00\x00\x00\x00\x00\x00'
p4463
tp4464
bag19
(g20
(I0
tp4465
g22
tp4466
Rp4467
(I1
(I5
tp4468
g2876
I00
S'\x00\x00\x80?\x00\x00\x00\x00\x00\x00\x00\x00\x00\x00\x00\x00\x00\x00\x00\x00'
p4469
tp4470
bag19
(g20
(I0
tp4471
g22
tp4472
Rp4473
(I1
(I5
tp4474
g2876
I00
S'\x00\x00\x00\x00\x00\x00\x80?\x00\x00\x00\x00\x00\x00\x00\x00\x00\x00\x00\x00'
p4475
tp4476
bag19
(g20
(I0
tp4477
g22
tp4478
Rp4479
(I1
(I5
tp4480
g2876
I00
S'\x00\x00\x00\x00\x00\x00\x00\x00\x00\x00\x00\x00\x00\x00\x00\x00\x00\x00\x80?'
p4481
tp4482
bag19
(g20
(I0
tp4483
g22
tp4484
Rp4485
(I1
(I5
tp4486
g2876
I00
S'\x00\x00\x00\x00\x00\x00\x80?\x00\x00\x00\x00\x00\x00\x00\x00\x00\x00\x00\x00'
p4487
tp4488
bag19
(g20
(I0
tp4489
g22
tp4490
Rp4491
(I1
(I5
tp4492
g2876
I00
S'\x00\x00\x80?\x00\x00\x00\x00\x00\x00\x00\x00\x00\x00\x00\x00\x00\x00\x00\x00'
p4493
tp4494
bag19
(g20
(I0
tp4495
g22
tp4496
Rp4497
(I1
(I5
tp4498
g2876
I00
S'\x00\x00\x00\x00\x00\x00\x00\x00\x00\x00\x00\x00\x00\x00\x80?\x00\x00\x00\x00'
p4499
tp4500
bag19
(g20
(I0
tp4501
g22
tp4502
Rp4503
(I1
(I5
tp4504
g2876
I00
S'\x00\x00\x00\x00\x00\x00\x00\x00\x00\x00\x00\x00\x00\x00\x00\x00\x00\x00\x80?'
p4505
tp4506
bag19
(g20
(I0
tp4507
g22
tp4508
Rp4509
(I1
(I5
tp4510
g2876
I00
S'\x00\x00\x00\x00\x00\x00\x00\x00\x00\x00\x80?\x00\x00\x00\x00\x00\x00\x00\x00'
p4511
tp4512
bag19
(g20
(I0
tp4513
g22
tp4514
Rp4515
(I1
(I5
tp4516
g2876
I00
S'\x00\x00\x00\x00\x00\x00\x00\x00\x00\x00\x00\x00\x00\x00\x80?\x00\x00\x00\x00'
p4517
tp4518
bag19
(g20
(I0
tp4519
g22
tp4520
Rp4521
(I1
(I5
tp4522
g2876
I00
S'\x00\x00\x00\x00\x00\x00\x00\x00\x00\x00\x00\x00\x00\x00\x00\x00\x00\x00\x80?'
p4523
tp4524
bag19
(g20
(I0
tp4525
g22
tp4526
Rp4527
(I1
(I5
tp4528
g2876
I00
S'\x00\x00\x00\x00\x00\x00\x00\x00\x00\x00\x00\x00\x00\x00\x00\x00\x00\x00\x80?'
p4529
tp4530
bag19
(g20
(I0
tp4531
g22
tp4532
Rp4533
(I1
(I5
tp4534
g2876
I00
S'\x00\x00\x00\x00\x00\x00\x00\x00\x00\x00\x00\x00\x00\x00\x00\x00\x00\x00\x80?'
p4535
tp4536
bag19
(g20
(I0
tp4537
g22
tp4538
Rp4539
(I1
(I5
tp4540
g2876
I00
S'\x00\x00\x00\x00\x00\x00\x00\x00\x00\x00\x00\x00\x00\x00\x80?\x00\x00\x00\x00'
p4541
tp4542
bag19
(g20
(I0
tp4543
g22
tp4544
Rp4545
(I1
(I5
tp4546
g2876
I00
S'\x00\x00\x00\x00\x00\x00\x00\x00\x00\x00\x00\x00\x00\x00\x00\x00\x00\x00\x80?'
p4547
tp4548
bag19
(g20
(I0
tp4549
g22
tp4550
Rp4551
(I1
(I5
tp4552
g2876
I00
S'\x00\x00\x00\x00\x00\x00\x80?\x00\x00\x00\x00\x00\x00\x00\x00\x00\x00\x00\x00'
p4553
tp4554
bag19
(g20
(I0
tp4555
g22
tp4556
Rp4557
(I1
(I5
tp4558
g2876
I00
S'\x00\x00\x00\x00\x00\x00\x00\x00\x00\x00\x80?\x00\x00\x00\x00\x00\x00\x00\x00'
p4559
tp4560
bag19
(g20
(I0
tp4561
g22
tp4562
Rp4563
(I1
(I5
tp4564
g2876
I00
S'\x00\x00\x00\x00\x00\x00\x00\x00\x00\x00\x00\x00\x00\x00\x00\x00\x00\x00\x80?'
p4565
tp4566
bag19
(g20
(I0
tp4567
g22
tp4568
Rp4569
(I1
(I5
tp4570
g2876
I00
S'\x00\x00\x00\x00\x00\x00\x00\x00\x00\x00\x00\x00\x00\x00\x00\x00\x00\x00\x80?'
p4571
tp4572
bag19
(g20
(I0
tp4573
g22
tp4574
Rp4575
(I1
(I5
tp4576
g2876
I00
S'\x00\x00\x80?\x00\x00\x00\x00\x00\x00\x00\x00\x00\x00\x00\x00\x00\x00\x00\x00'
p4577
tp4578
bag19
(g20
(I0
tp4579
g22
tp4580
Rp4581
(I1
(I5
tp4582
g2876
I00
S'\x00\x00\x00\x00\x00\x00\x00\x00\x00\x00\x00\x00\x00\x00\x00\x00\x00\x00\x80?'
p4583
tp4584
bag19
(g20
(I0
tp4585
g22
tp4586
Rp4587
(I1
(I5
tp4588
g2876
I00
S'\x00\x00\x00\x00\x00\x00\x80?\x00\x00\x00\x00\x00\x00\x00\x00\x00\x00\x00\x00'
p4589
tp4590
bag19
(g20
(I0
tp4591
g22
tp4592
Rp4593
(I1
(I5
tp4594
g2876
I00
S'\x00\x00\x00\x00\x00\x00\x00\x00\x00\x00\x00\x00\x00\x00\x80?\x00\x00\x00\x00'
p4595
tp4596
bag19
(g20
(I0
tp4597
g22
tp4598
Rp4599
(I1
(I5
tp4600
g2876
I00
S'\x00\x00\x00\x00\x00\x00\x00\x00\x00\x00\x00\x00\x00\x00\x00\x00\x00\x00\x80?'
p4601
tp4602
bag19
(g20
(I0
tp4603
g22
tp4604
Rp4605
(I1
(I5
tp4606
g2876
I00
S'\x00\x00\x00\x00\x00\x00\x00\x00\x00\x00\x00\x00\x00\x00\x80?\x00\x00\x00\x00'
p4607
tp4608
bag19
(g20
(I0
tp4609
g22
tp4610
Rp4611
(I1
(I5
tp4612
g2876
I00
S'\x00\x00\x00\x00\x00\x00\x00\x00\x00\x00\x80?\x00\x00\x00\x00\x00\x00\x00\x00'
p4613
tp4614
bag19
(g20
(I0
tp4615
g22
tp4616
Rp4617
(I1
(I5
tp4618
g2876
I00
S'\x00\x00\x00\x00\x00\x00\x00\x00\x00\x00\x00\x00\x00\x00\x00\x00\x00\x00\x80?'
p4619
tp4620
bag19
(g20
(I0
tp4621
g22
tp4622
Rp4623
(I1
(I5
tp4624
g2876
I00
S'\x00\x00\x00\x00\x00\x00\x00\x00\x00\x00\x80?\x00\x00\x00\x00\x00\x00\x00\x00'
p4625
tp4626
bag19
(g20
(I0
tp4627
g22
tp4628
Rp4629
(I1
(I5
tp4630
g2876
I00
S'\x00\x00\x00\x00\x00\x00\x00\x00\x00\x00\x00\x00\x00\x00\x00\x00\x00\x00\x80?'
p4631
tp4632
bag19
(g20
(I0
tp4633
g22
tp4634
Rp4635
(I1
(I5
tp4636
g2876
I00
S'\x00\x00\x80?\x00\x00\x00\x00\x00\x00\x00\x00\x00\x00\x00\x00\x00\x00\x00\x00'
p4637
tp4638
bag19
(g20
(I0
tp4639
g22
tp4640
Rp4641
(I1
(I5
tp4642
g2876
I00
S'\x00\x00\x80?\x00\x00\x00\x00\x00\x00\x00\x00\x00\x00\x00\x00\x00\x00\x00\x00'
p4643
tp4644
bag19
(g20
(I0
tp4645
g22
tp4646
Rp4647
(I1
(I5
tp4648
g2876
I00
S'\x00\x00\x00\x00\x00\x00\x00\x00\x00\x00\x00\x00\x00\x00\x00\x00\x00\x00\x80?'
p4649
tp4650
bag19
(g20
(I0
tp4651
g22
tp4652
Rp4653
(I1
(I5
tp4654
g2876
I00
S'\x00\x00\x80?\x00\x00\x00\x00\x00\x00\x00\x00\x00\x00\x00\x00\x00\x00\x00\x00'
p4655
tp4656
bag19
(g20
(I0
tp4657
g22
tp4658
Rp4659
(I1
(I5
tp4660
g2876
I00
S'\x00\x00\x00\x00\x00\x00\x00\x00\x00\x00\x00\x00\x00\x00\x00\x00\x00\x00\x80?'
p4661
tp4662
bag19
(g20
(I0
tp4663
g22
tp4664
Rp4665
(I1
(I5
tp4666
g2876
I00
S'\x00\x00\x00\x00\x00\x00\x00\x00\x00\x00\x80?\x00\x00\x00\x00\x00\x00\x00\x00'
p4667
tp4668
bag19
(g20
(I0
tp4669
g22
tp4670
Rp4671
(I1
(I5
tp4672
g2876
I00
S'\x00\x00\x00\x00\x00\x00\x80?\x00\x00\x00\x00\x00\x00\x00\x00\x00\x00\x00\x00'
p4673
tp4674
bag19
(g20
(I0
tp4675
g22
tp4676
Rp4677
(I1
(I5
tp4678
g2876
I00
S'\x00\x00\x00\x00\x00\x00\x00\x00\x00\x00\x00\x00\x00\x00\x00\x00\x00\x00\x80?'
p4679
tp4680
bag19
(g20
(I0
tp4681
g22
tp4682
Rp4683
(I1
(I5
tp4684
g2876
I00
S'\x00\x00\x00\x00\x00\x00\x00\x00\x00\x00\x00\x00\x00\x00\x80?\x00\x00\x00\x00'
p4685
tp4686
bag19
(g20
(I0
tp4687
g22
tp4688
Rp4689
(I1
(I5
tp4690
g2876
I00
S'\x00\x00\x80?\x00\x00\x00\x00\x00\x00\x00\x00\x00\x00\x00\x00\x00\x00\x00\x00'
p4691
tp4692
bag19
(g20
(I0
tp4693
g22
tp4694
Rp4695
(I1
(I5
tp4696
g2876
I00
S'\x00\x00\x00\x00\x00\x00\x00\x00\x00\x00\x80?\x00\x00\x00\x00\x00\x00\x00\x00'
p4697
tp4698
bag19
(g20
(I0
tp4699
g22
tp4700
Rp4701
(I1
(I5
tp4702
g2876
I00
S'\x00\x00\x00\x00\x00\x00\x00\x00\x00\x00\x80?\x00\x00\x00\x00\x00\x00\x00\x00'
p4703
tp4704
bag19
(g20
(I0
tp4705
g22
tp4706
Rp4707
(I1
(I5
tp4708
g2876
I00
S'\x00\x00\x00\x00\x00\x00\x00\x00\x00\x00\x80?\x00\x00\x00\x00\x00\x00\x00\x00'
p4709
tp4710
bag19
(g20
(I0
tp4711
g22
tp4712
Rp4713
(I1
(I5
tp4714
g2876
I00
S'\x00\x00\x00\x00\x00\x00\x00\x00\x00\x00\x00\x00\x00\x00\x00\x00\x00\x00\x80?'
p4715
tp4716
bag19
(g20
(I0
tp4717
g22
tp4718
Rp4719
(I1
(I5
tp4720
g2876
I00
S'\x00\x00\x00\x00\x00\x00\x00\x00\x00\x00\x00\x00\x00\x00\x00\x00\x00\x00\x80?'
p4721
tp4722
bag19
(g20
(I0
tp4723
g22
tp4724
Rp4725
(I1
(I5
tp4726
g2876
I00
S'\x00\x00\x00\x00\x00\x00\x00\x00\x00\x00\x00\x00\x00\x00\x80?\x00\x00\x00\x00'
p4727
tp4728
bag19
(g20
(I0
tp4729
g22
tp4730
Rp4731
(I1
(I5
tp4732
g2876
I00
S'\x00\x00\x80?\x00\x00\x00\x00\x00\x00\x00\x00\x00\x00\x00\x00\x00\x00\x00\x00'
p4733
tp4734
bag19
(g20
(I0
tp4735
g22
tp4736
Rp4737
(I1
(I5
tp4738
g2876
I00
S'\x00\x00\x80?\x00\x00\x00\x00\x00\x00\x00\x00\x00\x00\x00\x00\x00\x00\x00\x00'
p4739
tp4740
bag19
(g20
(I0
tp4741
g22
tp4742
Rp4743
(I1
(I5
tp4744
g2876
I00
S'\x00\x00\x00\x00\x00\x00\x00\x00\x00\x00\x80?\x00\x00\x00\x00\x00\x00\x00\x00'
p4745
tp4746
bag19
(g20
(I0
tp4747
g22
tp4748
Rp4749
(I1
(I5
tp4750
g2876
I00
S'\x00\x00\x80?\x00\x00\x00\x00\x00\x00\x00\x00\x00\x00\x00\x00\x00\x00\x00\x00'
p4751
tp4752
bag19
(g20
(I0
tp4753
g22
tp4754
Rp4755
(I1
(I5
tp4756
g2876
I00
S'\x00\x00\x00\x00\x00\x00\x80?\x00\x00\x00\x00\x00\x00\x00\x00\x00\x00\x00\x00'
p4757
tp4758
bag19
(g20
(I0
tp4759
g22
tp4760
Rp4761
(I1
(I5
tp4762
g2876
I00
S'\x00\x00\x00\x00\x00\x00\x00\x00\x00\x00\x00\x00\x00\x00\x00\x00\x00\x00\x80?'
p4763
tp4764
bag19
(g20
(I0
tp4765
g22
tp4766
Rp4767
(I1
(I5
tp4768
g2876
I00
S'\x00\x00\x00\x00\x00\x00\x00\x00\x00\x00\x80?\x00\x00\x00\x00\x00\x00\x00\x00'
p4769
tp4770
bag19
(g20
(I0
tp4771
g22
tp4772
Rp4773
(I1
(I5
tp4774
g2876
I00
S'\x00\x00\x00\x00\x00\x00\x80?\x00\x00\x00\x00\x00\x00\x00\x00\x00\x00\x00\x00'
p4775
tp4776
bag19
(g20
(I0
tp4777
g22
tp4778
Rp4779
(I1
(I5
tp4780
g2876
I00
S'\x00\x00\x00\x00\x00\x00\x00\x00\x00\x00\x80?\x00\x00\x00\x00\x00\x00\x00\x00'
p4781
tp4782
bag19
(g20
(I0
tp4783
g22
tp4784
Rp4785
(I1
(I5
tp4786
g2876
I00
S'\x00\x00\x00\x00\x00\x00\x00\x00\x00\x00\x80?\x00\x00\x00\x00\x00\x00\x00\x00'
p4787
tp4788
bag19
(g20
(I0
tp4789
g22
tp4790
Rp4791
(I1
(I5
tp4792
g2876
I00
S'\x00\x00\x00\x00\x00\x00\x00\x00\x00\x00\x80?\x00\x00\x00\x00\x00\x00\x00\x00'
p4793
tp4794
bag19
(g20
(I0
tp4795
g22
tp4796
Rp4797
(I1
(I5
tp4798
g2876
I00
S'\x00\x00\x00\x00\x00\x00\x80?\x00\x00\x00\x00\x00\x00\x00\x00\x00\x00\x00\x00'
p4799
tp4800
bag19
(g20
(I0
tp4801
g22
tp4802
Rp4803
(I1
(I5
tp4804
g2876
I00
S'\x00\x00\x00\x00\x00\x00\x00\x00\x00\x00\x00\x00\x00\x00\x80?\x00\x00\x00\x00'
p4805
tp4806
bag19
(g20
(I0
tp4807
g22
tp4808
Rp4809
(I1
(I5
tp4810
g2876
I00
S'\x00\x00\x00\x00\x00\x00\x00\x00\x00\x00\x80?\x00\x00\x00\x00\x00\x00\x00\x00'
p4811
tp4812
bag19
(g20
(I0
tp4813
g22
tp4814
Rp4815
(I1
(I5
tp4816
g2876
I00
S'\x00\x00\x00\x00\x00\x00\x00\x00\x00\x00\x00\x00\x00\x00\x00\x00\x00\x00\x80?'
p4817
tp4818
bag19
(g20
(I0
tp4819
g22
tp4820
Rp4821
(I1
(I5
tp4822
g2876
I00
S'\x00\x00\x00\x00\x00\x00\x00\x00\x00\x00\x00\x00\x00\x00\x00\x00\x00\x00\x80?'
p4823
tp4824
bag19
(g20
(I0
tp4825
g22
tp4826
Rp4827
(I1
(I5
tp4828
g2876
I00
S'\x00\x00\x00\x00\x00\x00\x00\x00\x00\x00\x00\x00\x00\x00\x00\x00\x00\x00\x80?'
p4829
tp4830
bag19
(g20
(I0
tp4831
g22
tp4832
Rp4833
(I1
(I5
tp4834
g2876
I00
S'\x00\x00\x80?\x00\x00\x00\x00\x00\x00\x00\x00\x00\x00\x00\x00\x00\x00\x00\x00'
p4835
tp4836
bag19
(g20
(I0
tp4837
g22
tp4838
Rp4839
(I1
(I5
tp4840
g2876
I00
S'\x00\x00\x00\x00\x00\x00\x00\x00\x00\x00\x00\x00\x00\x00\x80?\x00\x00\x00\x00'
p4841
tp4842
bag19
(g20
(I0
tp4843
g22
tp4844
Rp4845
(I1
(I5
tp4846
g2876
I00
S'\x00\x00\x00\x00\x00\x00\x00\x00\x00\x00\x80?\x00\x00\x00\x00\x00\x00\x00\x00'
p4847
tp4848
bag19
(g20
(I0
tp4849
g22
tp4850
Rp4851
(I1
(I5
tp4852
g2876
I00
S'\x00\x00\x00\x00\x00\x00\x00\x00\x00\x00\x00\x00\x00\x00\x00\x00\x00\x00\x80?'
p4853
tp4854
bag19
(g20
(I0
tp4855
g22
tp4856
Rp4857
(I1
(I5
tp4858
g2876
I00
S'\x00\x00\x00\x00\x00\x00\x00\x00\x00\x00\x00\x00\x00\x00\x00\x00\x00\x00\x80?'
p4859
tp4860
bag19
(g20
(I0
tp4861
g22
tp4862
Rp4863
(I1
(I5
tp4864
g2876
I00
S'\x00\x00\x00\x00\x00\x00\x00\x00\x00\x00\x00\x00\x00\x00\x00\x00\x00\x00\x80?'
p4865
tp4866
bag19
(g20
(I0
tp4867
g22
tp4868
Rp4869
(I1
(I5
tp4870
g2876
I00
S'\x00\x00\x00\x00\x00\x00\x00\x00\x00\x00\x00\x00\x00\x00\x00\x00\x00\x00\x80?'
p4871
tp4872
bag19
(g20
(I0
tp4873
g22
tp4874
Rp4875
(I1
(I5
tp4876
g2876
I00
S'\x00\x00\x80?\x00\x00\x00\x00\x00\x00\x00\x00\x00\x00\x00\x00\x00\x00\x00\x00'
p4877
tp4878
bag19
(g20
(I0
tp4879
g22
tp4880
Rp4881
(I1
(I5
tp4882
g2876
I00
S'\x00\x00\x00\x00\x00\x00\x00\x00\x00\x00\x80?\x00\x00\x00\x00\x00\x00\x00\x00'
p4883
tp4884
bag19
(g20
(I0
tp4885
g22
tp4886
Rp4887
(I1
(I5
tp4888
g2876
I00
S'\x00\x00\x00\x00\x00\x00\x80?\x00\x00\x00\x00\x00\x00\x00\x00\x00\x00\x00\x00'
p4889
tp4890
bag19
(g20
(I0
tp4891
g22
tp4892
Rp4893
(I1
(I5
tp4894
g2876
I00
S'\x00\x00\x00\x00\x00\x00\x00\x00\x00\x00\x80?\x00\x00\x00\x00\x00\x00\x00\x00'
p4895
tp4896
bag19
(g20
(I0
tp4897
g22
tp4898
Rp4899
(I1
(I5
tp4900
g2876
I00
S'\x00\x00\x00\x00\x00\x00\x00\x00\x00\x00\x80?\x00\x00\x00\x00\x00\x00\x00\x00'
p4901
tp4902
bag19
(g20
(I0
tp4903
g22
tp4904
Rp4905
(I1
(I5
tp4906
g2876
I00
S'\x00\x00\x00\x00\x00\x00\x80?\x00\x00\x00\x00\x00\x00\x00\x00\x00\x00\x00\x00'
p4907
tp4908
bag19
(g20
(I0
tp4909
g22
tp4910
Rp4911
(I1
(I5
tp4912
g2876
I00
S'\x00\x00\x00\x00\x00\x00\x00\x00\x00\x00\x00\x00\x00\x00\x00\x00\x00\x00\x80?'
p4913
tp4914
bag19
(g20
(I0
tp4915
g22
tp4916
Rp4917
(I1
(I5
tp4918
g2876
I00
S'\x00\x00\x00\x00\x00\x00\x00\x00\x00\x00\x00\x00\x00\x00\x00\x00\x00\x00\x80?'
p4919
tp4920
bag19
(g20
(I0
tp4921
g22
tp4922
Rp4923
(I1
(I5
tp4924
g2876
I00
S'\x00\x00\x00\x00\x00\x00\x00\x00\x00\x00\x00\x00\x00\x00\x80?\x00\x00\x00\x00'
p4925
tp4926
bag19
(g20
(I0
tp4927
g22
tp4928
Rp4929
(I1
(I5
tp4930
g2876
I00
S'\x00\x00\x00\x00\x00\x00\x80?\x00\x00\x00\x00\x00\x00\x00\x00\x00\x00\x00\x00'
p4931
tp4932
bag19
(g20
(I0
tp4933
g22
tp4934
Rp4935
(I1
(I5
tp4936
g2876
I00
S'\x00\x00\x00\x00\x00\x00\x00\x00\x00\x00\x80?\x00\x00\x00\x00\x00\x00\x00\x00'
p4937
tp4938
bag19
(g20
(I0
tp4939
g22
tp4940
Rp4941
(I1
(I5
tp4942
g2876
I00
S'\x00\x00\x80?\x00\x00\x00\x00\x00\x00\x00\x00\x00\x00\x00\x00\x00\x00\x00\x00'
p4943
tp4944
bag19
(g20
(I0
tp4945
g22
tp4946
Rp4947
(I1
(I5
tp4948
g2876
I00
S'\x00\x00\x80?\x00\x00\x00\x00\x00\x00\x00\x00\x00\x00\x00\x00\x00\x00\x00\x00'
p4949
tp4950
bag19
(g20
(I0
tp4951
g22
tp4952
Rp4953
(I1
(I5
tp4954
g2876
I00
S'\x00\x00\x00\x00\x00\x00\x80?\x00\x00\x00\x00\x00\x00\x00\x00\x00\x00\x00\x00'
p4955
tp4956
bag19
(g20
(I0
tp4957
g22
tp4958
Rp4959
(I1
(I5
tp4960
g2876
I00
S'\x00\x00\x00\x00\x00\x00\x00\x00\x00\x00\x00\x00\x00\x00\x00\x00\x00\x00\x80?'
p4961
tp4962
bag19
(g20
(I0
tp4963
g22
tp4964
Rp4965
(I1
(I5
tp4966
g2876
I00
S'\x00\x00\x00\x00\x00\x00\x00\x00\x00\x00\x00\x00\x00\x00\x00\x00\x00\x00\x80?'
p4967
tp4968
bag19
(g20
(I0
tp4969
g22
tp4970
Rp4971
(I1
(I5
tp4972
g2876
I00
S'\x00\x00\x80?\x00\x00\x00\x00\x00\x00\x00\x00\x00\x00\x00\x00\x00\x00\x00\x00'
p4973
tp4974
bag19
(g20
(I0
tp4975
g22
tp4976
Rp4977
(I1
(I5
tp4978
g2876
I00
S'\x00\x00\x00\x00\x00\x00\x00\x00\x00\x00\x80?\x00\x00\x00\x00\x00\x00\x00\x00'
p4979
tp4980
bag19
(g20
(I0
tp4981
g22
tp4982
Rp4983
(I1
(I5
tp4984
g2876
I00
S'\x00\x00\x00\x00\x00\x00\x00\x00\x00\x00\x80?\x00\x00\x00\x00\x00\x00\x00\x00'
p4985
tp4986
bag19
(g20
(I0
tp4987
g22
tp4988
Rp4989
(I1
(I5
tp4990
g2876
I00
S'\x98\xe4$;\xa6\xd5H<\xa5\xcbu?\x06\xeb\xad<\xc8\xc7|;'
p4991
tp4992
bag19
(g20
(I0
tp4993
g22
tp4994
Rp4995
(I1
(I5
tp4996
g2876
I00
S'\x8b\xd7J?\xb4\xae\x8e=\xf6\x90\xac<@m\x0c<\x03\xe3\xdd='
p4997
tp4998
bag19
(g20
(I0
tp4999
g22
tp5000
Rp5001
(I1
(I5
tp5002
g2876
I00
S'\x18s~<\x1eJ\xaa=G\xdeW? \xad7=\xc7\xf5X<'
p5003
tp5004
bag19
(g20
(I0
tp5005
g22
tp5006
Rp5007
(I1
(I5
tp5008
g2876
I00
S'r\xecz?\xdb\xce\x01:\x9f\x18\x8f<<\x9f8:8\\\x98:'
p5009
tp5010
bag19
(g20
(I0
tp5011
g22
tp5012
Rp5013
(I1
(I5
tp5014
g2876
I00
S'\xb3\xca\x7f?\xd5\xcb\x857\xa3\xd95:m\x9a)8\xc5\xb4\x848'
p5015
tp5016
bag19
(g20
(I0
tp5017
g22
tp5018
Rp5019
(I1
(I5
tp5020
g2876
I00
S'\xde7\xe8;\x95~i?+\xdbh<\xbba\x15=\x02\xee\xf6<'
p5021
tp5022
bag19
(g20
(I0
tp5023
g22
tp5024
Rp5025
(I1
(I5
tp5026
g2876
I00
S'\xe3\xef\x0c?t@\xfc=\xe9\x87\x04>"MW=\t\xc5\x13>'
p5027
tp5028
bag19
(g20
(I0
tp5029
g22
tp5030
Rp5031
(I1
(I5
tp5032
g2876
I00
S'\x1ds\x0e/\xf5\xf9\x9d4\xa5\xe0l5\xea\xff\x7f?v\xb6\x8f3'
p5033
tp5034
bag19
(g20
(I0
tp5035
g22
tp5036
Rp5037
(I1
(I5
tp5038
g2876
I00
S'?r\xa80}\x1f\x132\x14\xe9\xcc1/\xd2\xa11\x00\x00\x80?'
p5039
tp5040
bag19
(g20
(I0
tp5041
g22
tp5042
Rp5043
(I1
(I5
tp5044
g2876
I00
S'g?>5\xe4\xc7\xe05\x98\xff\x7f?r\xc7\x1e6\x99\x93\xbd5'
p5045
tp5046
bag19
(g20
(I0
tp5047
g22
tp5048
Rp5049
(I1
(I5
tp5050
g2876
I00
S"\x88\xa6\xb87'\xb43:d$\x9c<\xac\xe5z?F=-9"
p5051
tp5052
bag19
(g20
(I0
tp5053
g22
tp5054
Rp5055
(I1
(I5
tp5056
g2876
I00
S'\x82\xabI8\\^\x018\xc8\xf5\x7f?\x91p\x898\x18\xfd?7'
p5057
tp5058
bag19
(g20
(I0
tp5059
g22
tp5060
Rp5061
(I1
(I5
tp5062
g2876
I00
S'\xda%/3\xe4\xff\x7f?-KD3\xe2\x98\xcd5\xe3Q\x953'
p5063
tp5064
bag19
(g20
(I0
tp5065
g22
tp5066
Rp5067
(I1
(I5
tp5068
g2876
I00
S's\xa7\x87<{T\x95=m\x19\xb1>\xab\xe0\xcf>\xa0l">'
p5069
tp5070
bag19
(g20
(I0
tp5071
g22
tp5072
Rp5073
(I1
(I5
tp5074
g2876
I00
S'\xe6v\x1c?S\xa0\x92=\xa5\x00\xf2=`\x14\x8d=\xbbI\x05>'
p5075
tp5076
bag19
(g20
(I0
tp5077
g22
tp5078
Rp5079
(I1
(I5
tp5080
g2876
I00
S'\x80mU5\xe0\xfd\x7f?FXT5kZ\xf87\x04\xb7\x9e5'
p5081
tp5082
bag19
(g20
(I0
tp5083
g22
tp5084
Rp5085
(I1
(I5
tp5086
g2876
I00
S'\\\x93\x7f?A\x8f\x8b8\xdc\xa7\x83:5q\x8e9m)\xa59'
p5087
tp5088
bag19
(g20
(I0
tp5089
g22
tp5090
Rp5091
(I1
(I5
tp5092
g2876
I00
S'b\xb2a?\x9c\xbf\x9f<4X\x11=43^<\x12\x15L='
p5093
tp5094
bag19
(g20
(I0
tp5095
g22
tp5096
Rp5097
(I1
(I5
tp5098
g2876
I00
S'\xd0\x8d\xf38\xe5\x81490\xc9\x7f?;\xc1\xdd9=7\x039'
p5099
tp5100
bag19
(g20
(I0
tp5101
g22
tp5102
Rp5103
(I1
(I5
tp5104
g2876
I00
S'\xfba\x95:F\xc7\x92<;\xa3x?\x1a\xd2\x18<\xfb\x88\xc49'
p5105
tp5106
bag19
(g20
(I0
tp5107
g22
tp5108
Rp5109
(I1
(I5
tp5110
g2876
I00
S'=\xef\xf86\xc3@\n7\x19\xf1\x7f?\xecV\\9\xcfC\xd85'
p5111
tp5112
bag19
(g20
(I0
tp5113
g22
tp5114
Rp5115
(I1
(I5
tp5116
g2876
I00
S'BS}9W=~?<\xd4\xdd9\xbe\xd4r;\x84C$;'
p5117
tp5118
bag19
(g20
(I0
tp5119
g22
tp5120
Rp5121
(I1
(I5
tp5122
g2876
I00
S"\x9d1\x9a<\x04\xf0A=\x0f2W?'\xcdw<\x7f\xf1\x9f="
p5123
tp5124
bag19
(g20
(I0
tp5125
g22
tp5126
Rp5127
(I1
(I5
tp5128
g2876
I00
S'7\x1d)>\xcf$\r<\x88\xffC?\x0eu\xa6<\xf4\x0e%='
p5129
tp5130
bag19
(g20
(I0
tp5131
g22
tp5132
Rp5133
(I1
(I5
tp5134
g2876
I00
S'iHH:\x04>\xd4;\x02\xb7\xba<\xe5hw?\xc7\xd4f;'
p5135
tp5136
bag19
(g20
(I0
tp5137
g22
tp5138
Rp5139
(I1
(I5
tp5140
g2876
I00
S'(yu?\xbcy\x9a;\xd1\x9a\xc5<\xe7\na;B\x00\x11<'
p5141
tp5142
bag19
(g20
(I0
tp5143
g22
tp5144
Rp5145
(I1
(I5
tp5146
g2876
I00
S'\xcd\xa2\xae:s\x99z?\xfc\xdc+;\x90\x02w<VR\x07;'
p5147
tp5148
bag19
(g20
(I0
tp5149
g22
tp5150
Rp5151
(I1
(I5
tp5152
g2876
I00
S'q\xa7\xff7}\xdc\x7f?Xz-8.\xe4\xc19\xf3\x1e\xd28'
p5153
tp5154
bag19
(g20
(I0
tp5155
g22
tp5156
Rp5157
(I1
(I5
tp5158
g2876
I00
S'Or9=VF\xc6=\xb8s\xc7=\xe9\x8d\r?\xbf\x8eT>'
p5159
tp5160
bag19
(g20
(I0
tp5161
g22
tp5162
Rp5163
(I1
(I5
tp5164
g2876
I00
S'\xf4\x87j9\xaf[m;I:\xe6;\x94\xc9|?T\xe7\xdb:'
p5165
tp5166
bag19
(g20
(I0
tp5167
g22
tp5168
Rp5169
(I1
(I5
tp5170
g2876
I00
S'\xf3\xb3\xf6<?\t\x93=\xd7\xe5I?\xf1\xefb=5F]='
p5171
tp5172
bag19
(g20
(I0
tp5173
g22
tp5174
Rp5175
(I1
(I5
tp5176
g2876
I00
S'\xf5"~?\xe23>:\x98=y;\'`\x10:\n\'\x10;'
p5177
tp5178
bag19
(g20
(I0
tp5179
g22
tp5180
Rp5181
(I1
(I5
tp5182
g2876
I00
S'X\xa1\x0c6\xdf\xdd\x056V\xb3\x126\xf5\x9dY5\x8a\xff\x7f?'
p5183
tp5184
bag19
(g20
(I0
tp5185
g22
tp5186
Rp5187
(I1
(I5
tp5188
g2876
I00
S"g\xea\xb28l\xcc\xb68;\xe3\x7f?5\xe3=9\x1e'\xb38"
p5189
tp5190
bag19
(g20
(I0
tp5191
g22
tp5192
Rp5193
(I1
(I5
tp5194
g2876
I00
S't\xa3J6\xf1\x83S64\xff\x7f?\xaa!\x8f6\x90T\xdb5'
p5195
tp5196
bag19
(g20
(I0
tp5197
g22
tp5198
Rp5199
(I1
(I5
tp5200
g2876
I00
S'}\xcb\x9b<tv\x90=\xe2\xc9\xfc>\xf3\x9b\x82>\xab\x7f%>'
p5201
tp5202
bag19
(g20
(I0
tp5203
g22
tp5204
Rp5205
(I1
(I5
tp5206
g2876
I00
S"\xb6}C4F[+5\xd2\xff\x7f?\xd2\xf5\xf65U'\xb83"
p5207
tp5208
bag19
(g20
(I0
tp5209
g22
tp5210
Rp5211
(I1
(I5
tp5212
g2876
I00
S'\xab2m7\xc7\rB:=\x98n:N\x86\x7f?\xd1\xb9I9'
p5213
tp5214
bag19
(g20
(I0
tp5215
g22
tp5216
Rp5217
(I1
(I5
tp5218
g2876
I00
S'\x1a\xbb\x1c:\x97j\xcc;&N)?j\x84\xa9>J\x83>:'
p5219
tp5220
bag19
(g20
(I0
tp5221
g22
tp5222
Rp5223
(I1
(I5
tp5224
g2876
I00
S'h\x86\x7f?\xd1\x14p8\xe4\x99\xa0:\xc1\x9a[9\xab\x8b\xbe9'
p5225
tp5226
bag19
(g20
(I0
tp5227
g22
tp5228
Rp5229
(I1
(I5
tp5230
g2876
I00
S'0<29\x1c\xf2G;\xd6\x9a\xb2<;my?\x99d+:'
p5231
tp5232
bag19
(g20
(I0
tp5233
g22
tp5234
Rp5235
(I1
(I5
tp5236
g2876
I00
S'\xda\xf2Y5\xed|\x0c6T\xff\x7f?\xcc\r\xe96&)\x075'
p5237
tp5238
bag19
(g20
(I0
tp5239
g22
tp5240
Rp5241
(I1
(I5
tp5242
g2876
I00
S'\xceZ\xdf6\x03\xe9\xed9\x1aX\x10:_\x97\x7f?\xb5{\x19:'
p5243
tp5244
bag19
(g20
(I0
tp5245
g22
tp5246
Rp5247
(I1
(I5
tp5248
g2876
I00
S'\xa0s\xbc8/\x92b82\xe8\x7f?3\xefV9 \x93q7'
p5249
tp5250
bag19
(g20
(I0
tp5251
g22
tp5252
Rp5253
(I1
(I5
tp5254
g2876
I00
S'k\xe3\xca6f R:\xd13\x1c:\xd7\x91\x7f?\xf2x\x919'
p5255
tp5256
bag19
(g20
(I0
tp5257
g22
tp5258
Rp5259
(I1
(I5
tp5260
g2876
I00
S'bR+:;\xfc\x01;\x83\xf8}?\n\xb8t;\xa4\xea\xcb:'
p5261
tp5262
bag19
(g20
(I0
tp5263
g22
tp5264
Rp5265
(I1
(I5
tp5266
g2876
I00
S'\x04\x1c\x135|\xb0\xb05\x84\xff\x7f?5\xcb\xaa6I\xab\xbd4'
p5267
tp5268
bag19
(g20
(I0
tp5269
g22
tp5270
Rp5271
(I1
(I5
tp5272
g2876
I00
S'E\x86\xd25\x0e\xfa\x7f?pp\xc66/\xfe\xa98\x10\xf0\x0c6'
p5273
tp5274
bag19
(g20
(I0
tp5275
g22
tp5276
Rp5277
(I1
(I5
tp5278
g2876
I00
S'<1L1\xf2\xff\x7f?Y\xb3N1[\xb9P5\xb3\xe3\x9b0'
p5279
tp5280
bag19
(g20
(I0
tp5281
g22
tp5282
Rp5283
(I1
(I5
tp5284
g2876
I00
S'\x80\x02}?\x9a\xc3\xf99J\x9e\x05<$\xcf\xdf91\xd5+;'
p5285
tp5286
bag19
(g20
(I0
tp5287
g22
tp5288
Rp5289
(I1
(I5
tp5290
g2876
I00
S'\xdc\xdeW4y\xb1\xce8{@\xe87\xe8\xea\x7f?d\xf9L9'
p5291
tp5292
bag19
(g20
(I0
tp5293
g22
tp5294
Rp5295
(I1
(I5
tp5296
g2876
I00
S'\xfdz\x86:.\x9a-=,\xc7D<\x81\xf7m?\xb5 v<'
p5297
tp5298
bag19
(g20
(I0
tp5299
g22
tp5300
Rp5301
(I1
(I5
tp5302
g2876
I00
S'\x9f`\xdc4\x19\x15F9<%\xf39\n\xd4\x7f?\x10a\x957'
p5303
tp5304
bag19
(g20
(I0
tp5305
g22
tp5306
Rp5307
(I1
(I5
tp5308
g2876
I00
S'\xa0\xd6\r3\xb1\xc1.4\xbe\xadM4\x17]\xae4\xf4\xff\x7f?'
p5309
tp5310
bag19
(g20
(I0
tp5311
g22
tp5312
Rp5313
(I1
(I5
tp5314
g2876
I00
S'\x0f\x81~9\xd6\xf9\xaf9\x97\xc2\x7f?e\x14S9\x96#%9'
p5315
tp5316
bag19
(g20
(I0
tp5317
g22
tp5318
Rp5319
(I1
(I5
tp5320
g2876
I00
S'\xe8\xc7v=\\\xdd\x96>,\xf3\xc2>F\xec\xcc=\xd06(>'
p5321
tp5322
bag19
(g20
(I0
tp5323
g22
tp5324
Rp5325
(I1
(I5
tp5326
g2876
I00
S'\x88\x0c&5\x0fNA6\xa0\xbe\xd75\xb0\x9c\x1a7\x10\xff\x7f?'
p5327
tp5328
bag19
(g20
(I0
tp5329
g22
tp5330
Rp5331
(I1
(I5
tp5332
g2876
I00
S'n\x01\xf34\xbd\x80;7\xecY\x9b;_\xc8~?\xb8\x85&6'
p5333
tp5334
bag19
(g20
(I0
tp5335
g22
tp5336
Rp5337
(I1
(I5
tp5338
g2876
I00
S'\xbbT[=+\x9f\x83=\xb3\x8d\xab>\xed7\x04?\x07\x01\xfb<'
p5339
tp5340
bag19
(g20
(I0
tp5341
g22
tp5342
Rp5343
(I1
(I5
tp5344
g2876
I00
S'<\xfc\x0b7\xc5~\x867\x8a\xf7\x7f?O\xa3\xd58\xdf\x05;6'
p5345
tp5346
bag19
(g20
(I0
tp5347
g22
tp5348
Rp5349
(I1
(I5
tp5350
g2876
I00
S'\xabyJ?\xbf\x15\xa4=\x13\xab\xad=c\xdb\xae<\xb1\xeb\xba<'
p5351
tp5352
bag19
(g20
(I0
tp5353
g22
tp5354
Rp5355
(I1
(I5
tp5356
g2876
I00
S'2\xff\x7f?\xe3>\x934\x0bK$7s@\x864\xab\x89\n6'
p5357
tp5358
bag19
(g20
(I0
tp5359
g22
tp5360
Rp5361
(I1
(I5
tp5362
g2876
I00
S'\xdbv\x80;+\xb4\xd4<\x80\xe9\x81;$\x0c\x9a;\x86!v?'
p5363
tp5364
bag19
(g20
(I0
tp5365
g22
tp5366
Rp5367
(I1
(I5
tp5368
g2876
I00
S'\x9d\xddI:\xae\xa9c?e\xbfX:~\x1f5;d\xc4\xd9='
p5369
tp5370
bag19
(g20
(I0
tp5371
g22
tp5372
Rp5373
(I1
(I5
tp5374
g2876
I00
S'GZ~?\xb8ai9\x99\x87\x8b;\xdfK\x95:\xdd\xb7U:'
p5375
tp5376
bag19
(g20
(I0
tp5377
g22
tp5378
Rp5379
(I1
(I5
tp5380
g2876
I00
S'\xbe\xa6\xa2>\xd7P\xa4=\xba\x0c\x1f>\\\x82~>\x03\xfbJ>'
p5381
tp5382
bag19
(g20
(I0
tp5383
g22
tp5384
Rp5385
(I1
(I5
tp5386
g2876
I00
S'H[\x832\x92q)4\x00(P3\x93\x8aU3\xfc\xff\x7f?'
p5387
tp5388
bag19
(g20
(I0
tp5389
g22
tp5390
Rp5391
(I1
(I5
tp5392
g2876
I00
S'\xd0\x0b\xbb;\x91\x1bc?\x84\xd8\x90;7\xb5\xfd;\xd5\x89\xc2='
p5393
tp5394
bag19
(g20
(I0
tp5395
g22
tp5396
Rp5397
(I1
(I5
tp5398
g2876
I00
S'H\xde\xa4<\xec\xa9b=\xe9\x9f{=w\xf8\x98<\xad,X?'
p5399
tp5400
bag19
(g20
(I0
tp5401
g22
tp5402
Rp5403
(I1
(I5
tp5404
g2876
I00
S'\xe8J\x99;\xd0\xfbO<\xe1W\x00<l\xb8#<:\xfdv?'
p5405
tp5406
bag19
(g20
(I0
tp5407
g22
tp5408
Rp5409
(I1
(I5
tp5410
g2876
I00
S'\x10\xff\x7f?\xcas,4\xb9L\\7I\xd1S4\xa8\x98`5'
p5411
tp5412
bag19
(g20
(I0
tp5413
g22
tp5414
Rp5415
(I1
(I5
tp5416
g2876
I00
S'"z\xd4< 0%<\x92\xe1f?\xef\xd2o=+\xach;'
p5417
tp5418
bag19
(g20
(I0
tp5419
g22
tp5420
Rp5421
(I1
(I5
tp5422
g2876
I00
S'\x8f\xdf\xb6:<\x9fP:\xe2\xf4~?\xd96\xcd:}c\xa79'
p5423
tp5424
bag19
(g20
(I0
tp5425
g22
tp5426
Rp5427
(I1
(I5
tp5428
g2876
I00
S'p\x10\x019\xc9\x88p:1\xb6\xf88O\x07]8\x93\xb0\x7f?'
p5429
tp5430
bag19
(g20
(I0
tp5431
g22
tp5432
Rp5433
(I1
(I5
tp5434
g2876
I00
S'\x0b\xcd\x18<\xa7E&?O~">P\xb5\x1b>\x9aG\xf9<'
p5435
tp5436
bag19
(g20
(I0
tp5437
g22
tp5438
Rp5439
(I1
(I5
tp5440
g2876
I00
S'~\xff\x7f?\x08\x93\x1b4\x9a\x89\xe06\xc6o\xb43i\x18_5'
p5441
tp5442
bag19
(g20
(I0
tp5443
g22
tp5444
Rp5445
(I1
(I5
tp5446
g2876
I00
S'x^\x1e?:\xcel<\x9a\xb9\\=\xc7j\x81>2\xd5v='
p5447
tp5448
bag19
(g20
(I0
tp5449
g22
tp5450
Rp5451
(I1
(I5
tp5452
g2876
I00
S'5\x84\xa26w\xee\x067\xf6\xfd\x7f?\xce=\x867A\\\x196'
p5453
tp5454
bag19
(g20
(I0
tp5455
g22
tp5456
Rp5457
(I1
(I5
tp5458
g2876
I00
S'y\xf2\x7f??\xb9\r7\xa4l)9~K77\x81\xb2\xd47'
p5459
tp5460
bag19
(g20
(I0
tp5461
g22
tp5462
Rp5463
(I1
(I5
tp5464
g2876
I00
S'\n\xd3L7\xc3o\xd58\xb3\x97\x7f?\xddq\xc0:\x10\xac\x1c7'
p5465
tp5466
bag19
(g20
(I0
tp5467
g22
tp5468
Rp5469
(I1
(I5
tp5470
g2876
I00
S'<\x04\xef:M\x92\xf0;\x1d\xd5|?\xd6\xb3\x1f;\xfb\x1dJ:'
p5471
tp5472
bag19
(g20
(I0
tp5473
g22
tp5474
Rp5475
(I1
(I5
tp5476
g2876
I00
S'\xd7-K>p0\\=\xa1e\xf2>\x12M\x0c=\x87\xe7u>'
p5477
tp5478
bag19
(g20
(I0
tp5479
g22
tp5480
Rp5481
(I1
(I5
tp5482
g2876
I00
S'z2\xa87\x14h\xec7\xb9\xa3\xfe7\xc5s\x047T\xfa\x7f?'
p5483
tp5484
bag19
(g20
(I0
tp5485
g22
tp5486
Rp5487
(I1
(I5
tp5488
g2876
I00
S"\xb0q\x1c:\xfe3\xd994)=9\x0er\xe17'\xb0\x7f?"
p5489
tp5490
bag19
(g20
(I0
tp5491
g22
tp5492
Rp5493
(I1
(I5
tp5494
g2876
I00
S'vhi?\x9b\x9c\x0e<l\xabt<\x17\xad\x9a<\xfeO;='
p5495
tp5496
bag19
(g20
(I0
tp5497
g22
tp5498
Rp5499
(I1
(I5
tp5500
g2876
I00
S'\xf6\x19\x0c4p\xff\x7f?\xe0\xaf\x1b4F\xa6\x087Hli4'
p5501
tp5502
bag19
(g20
(I0
tp5503
g22
tp5504
Rp5505
(I1
(I5
tp5506
g2876
I00
S'\xce\xcd\x7f?\x9d&R8\xee\x01\t:\xa6J\x068\xcb\xee(9'
p5507
tp5508
bag19
(g20
(I0
tp5509
g22
tp5510
Rp5511
(I1
(I5
tp5512
g2876
I00
S'\x8a\x17\x937\xae\x08}8\xc5\xcf\x7f?Q\x12):TR[7'
p5513
tp5514
bag19
(g20
(I0
tp5515
g22
tp5516
Rp5517
(I1
(I5
tp5518
g2876
I00
S'\xd6\x8a\xb2:\x16\x96Q<F\xde\x17:P\xacJ<\xba\x0fy?'
p5519
tp5520
bag19
(g20
(I0
tp5521
g22
tp5522
Rp5523
(I1
(I5
tp5524
g2876
I00
S'3\xe7\xfb6\xfb\x88\xa99Y\x87\xa1:\xc8\x90\x7f?\x046\x0c9'
p5525
tp5526
bag19
(g20
(I0
tp5527
g22
tp5528
Rp5529
(I1
(I5
tp5530
g2876
I00
S"ckC8\xb3\xf0\x7f?\x8c'\x9f7\xe0\x8b\x189\x15\xb6\xbb7"
p5531
tp5532
bag19
(g20
(I0
tp5533
g22
tp5534
Rp5535
(I1
(I5
tp5536
g2876
I00
S'\xed\x10U5\xd82p9\x8d\xc6\xee91\xcf\x7f?\xebTy8'
p5537
tp5538
bag19
(g20
(I0
tp5539
g22
tp5540
Rp5541
(I1
(I5
tp5542
g2876
I00
S'<\x8d&<=9\xb89Z\x97*:\t\xb3\xb59h\r}?'
p5543
tp5544
bag19
(g20
(I0
tp5545
g22
tp5546
Rp5547
(I1
(I5
tp5548
g2876
I00
S'\x1e\x82s<\xb0\xd8\xfb:@\tz?\x9a\xf7\xad;\xce\xb6\x9d:'
p5549
tp5550
bag19
(g20
(I0
tp5551
g22
tp5552
Rp5553
(I1
(I5
tp5554
g2876
I00
S'I2\t54\xff\x7f?x\x12\xf34;\xfd17P\xe1\x145'
p5555
tp5556
bag19
(g20
(I0
tp5557
g22
tp5558
Rp5559
(I1
(I5
tp5560
g2876
I00
S'^\xba\xe73\xa2Sw4\x80\x95\x1a4\xcb@73\xf8\xff\x7f?'
p5561
tp5562
bag19
(g20
(I0
tp5563
g22
tp5564
Rp5565
(I1
(I5
tp5566
g2876
I00
S'0\xf9\x7f?\xd9y\xd45\x8b\xdc\xb88\xef%\x826\n\xd3+7'
p5567
tp5568
bag19
(g20
(I0
tp5569
g22
tp5570
Rp5571
(I1
(I5
tp5572
g2876
I00
S'\x87\x8c\x10<\x16\xc7\x07</Hx?\xfd\xee\x9c;\x00)\x07<'
p5573
tp5574
bag19
(g20
(I0
tp5575
g22
tp5576
Rp5577
(I1
(I5
tp5578
g2876
I00
S'\x11/#8\x17\xf0\x7f?z\xc5p7\xbf\x9d49s@\x927'
p5579
tp5580
bag19
(g20
(I0
tp5581
g22
tp5582
Rp5583
(I1
(I5
tp5584
g2876
I00
S'F\xdc\x0f4t\xb8Q7>@\xab7\x14\xfd\x7f?\xbe]A7'
p5585
tp5586
bag19
(g20
(I0
tp5587
g22
tp5588
Rp5589
(I1
(I5
tp5590
g2876
I00
S'.\x16\x7f?.\xbb\xae9\x01\x1e\x0b;\xf6F\xd397\xc39:'
p5591
tp5592
bag19
(g20
(I0
tp5593
g22
tp5594
Rp5595
(I1
(I5
tp5596
g2876
I00
S'?\xe2\x928\xe7\x08\x7f?\xd9\xc8\xb28#\x10\x9d:tb\x1e;'
p5597
tp5598
bag19
(g20
(I0
tp5599
g22
tp5600
Rp5601
(I1
(I5
tp5602
g2876
I00
S'\x8a\xb7\xab=\xc4\x8b\n=C\xe4M>\xd6\xc5a<+\xe0*?'
p5603
tp5604
bag19
(g20
(I0
tp5605
g22
tp5606
Rp5607
(I1
(I5
tp5608
g2876
I00
S"\xd6\xb6V>2Nn=%\xab\xb8='\xb5\x01?m\x8b\n>"
p5609
tp5610
bag19
(g20
(I0
tp5611
g22
tp5612
Rp5613
(I1
(I5
tp5614
g2876
I00
S'\xb4\x0c\x0c:x\x0b\xbe<9\x8e!:\xa0_\xd99\x12\xa9y?'
p5615
tp5616
bag19
(g20
(I0
tp5617
g22
tp5618
Rp5619
(I1
(I5
tp5620
g2876
I00
S'l\x04\xab9j/\xe0;\xcfbN:{\x95\xed:\xdc\x7f}?'
p5621
tp5622
bag19
(g20
(I0
tp5623
g22
tp5624
Rp5625
(I1
(I5
tp5626
g2876
I00
S'\xce\xb6\xb85\x98\xf9\x7f?\xc6,\xf25\x1bf\xc48#L`5'
p5627
tp5628
bag19
(g20
(I0
tp5629
g22
tp5630
Rp5631
(I1
(I5
tp5632
g2876
I00
S'\rb\x04;\x94\x05w=\xe6\xb1\x86;\xf4\xe9d?\xde>!='
p5633
tp5634
bag19
(g20
(I0
tp5635
g22
tp5636
Rp5637
(I1
(I5
tp5638
g2876
I00
S'Mj\xee9\x9fH\xaf:LZ\xdd9\x00\xe90:\xa8B\x7f?'
p5639
tp5640
bag19
(g20
(I0
tp5641
g22
tp5642
Rp5643
(I1
(I5
tp5644
g2876
I00
S'\xef\x0c\x979gqH933\n9\xe3\x0c\xcd8\x8c\xd1\x7f?'
p5645
tp5646
bag19
(g20
(I0
tp5647
g22
tp5648
Rp5649
(I1
(I5
tp5650
g2876
I00
S'\r7\xaa7\xd8\xea\x86=\xf0\x10\xac:7jn?}"\xc2:'
p5651
tp5652
bag19
(g20
(I0
tp5653
g22
tp5654
Rp5655
(I1
(I5
tp5656
g2876
I00
S'\x8f\x9f\x85=\x14\xa7N=ZV>?\xe2\xafg<\x07\xb2\x01>'
p5657
tp5658
bag19
(g20
(I0
tp5659
g22
tp5660
Rp5661
(I1
(I5
tp5662
g2876
I00
S'\xe5\x90g=\xcd>\x0f<\x95\x8ej?8\x17?<\xd5\x81\xdf;'
p5663
tp5664
bag19
(g20
(I0
tp5665
g22
tp5666
Rp5667
(I1
(I5
tp5668
g2876
I00
S'\xb0\xd8\x8d7p\x8d\xcd8\n\xfd\xe57\xa7&\xd09\xa7\xdc\x7f?'
p5669
tp5670
bag19
(g20
(I0
tp5671
g22
tp5672
Rp5673
(I1
(I5
tp5674
g2876
I00
S'\x9d\xa5H9ny\xf99\xb1\xee\xf09z\xbe\\9\\\xa8\x7f?'
p5675
tp5676
bag19
(g20
(I0
tp5677
g22
tp5678
Rp5679
(I1
(I5
tp5680
g2876
I00
S'\xa7\xc7~?\x8a \x969\x89\xee3;\x95\x8c\xa39\x18f\xba:'
p5681
tp5682
bag19
(g20
(I0
tp5683
g22
tp5684
Rp5685
(I1
(I5
tp5686
g2876
I00
S'B$)6\x98\r\x937\x85k\xda6\xd9\xa1\x907"\xfd\x7f?'
p5687
tp5688
bag19
(g20
(I0
tp5689
g22
tp5690
Rp5691
(I1
(I5
tp5692
g2876
I00
S'01\xbb;.u\x96<\x12\xa2\xe4>\x1f\xbb\x04?Bs2<'
p5693
tp5694
bag19
(g20
(I0
tp5695
g22
tp5696
Rp5697
(I1
(I5
tp5698
g2876
I00
S'\x94\xbei=\xcbnL?\xa7RP<\xaa\xdcj<oD\xf0='
p5699
tp5700
bag19
(g20
(I0
tp5701
g22
tp5702
Rp5703
(I1
(I5
tp5704
g2876
I00
S'gc1:\xdc\xdf\x8c;NA,:\xc1\x1ca;\xba\xad}?'
p5705
tp5706
bag19
(g20
(I0
tp5707
g22
tp5708
Rp5709
(I1
(I5
tp5710
g2876
I00
S'\x1a\xf2\x11:M;d:\xfd@\x7f?inq:\xcfp\x14:'
p5711
tp5712
bag19
(g20
(I0
tp5713
g22
tp5714
Rp5715
(I1
(I5
tp5716
g2876
I00
S'\x0b\xd2\xf7=?^:=13\xd2>\xd9N\x92<\x98g\xcf>'
p5717
tp5718
bag19
(g20
(I0
tp5719
g22
tp5720
Rp5721
(I1
(I5
tp5722
g2876
I00
S'\xa4\xa5\x0c=K\xa6\xa9>\x18q\xc7>I\xbc\n>\x13\xd7\xdf='
p5723
tp5724
bag19
(g20
(I0
tp5725
g22
tp5726
Rp5727
(I1
(I5
tp5728
g2876
I00
S'\x14\xc5b7\x17\x87\xfd9&\x98\x14;U>\x7f?\xf4\xf5G9'
p5729
tp5730
bag19
(g20
(I0
tp5731
g22
tp5732
Rp5733
(I1
(I5
tp5734
g2876
I00
S'\x16\xd4\x800\xa4\x1f\xc42Y\xb152\xd5[\x911\x00\x00\x80?'
p5735
tp5736
bag19
(g20
(I0
tp5737
g22
tp5738
Rp5739
(I1
(I5
tp5740
g2876
I00
S'\xac\xf8\x8e8\xe8\xe6\x7f?\xb9\xaf\xd87hB,9n\x98\x029'
p5741
tp5742
bag19
(g20
(I0
tp5743
g22
tp5744
Rp5745
(I1
(I5
tp5746
g2876
I00
S'U\x0e/4P\xff\x7f?8\xac\x1c4\x1b\xd8F6_Y\xf56'
p5747
tp5748
bag19
(g20
(I0
tp5749
g22
tp5750
Rp5751
(I1
(I5
tp5752
g2876
I00
S'j\xf9\x7f?\x94\x1f\x146\x92\x8b\xa98\x08\x05\x876\x84E`7'
p5753
tp5754
bag19
(g20
(I0
tp5755
g22
tp5756
Rp5757
(I1
(I5
tp5758
g2876
I00
S'\xf7\xa5k8\xf0\x0b\xaa8\x90\x1f\xac8:\x86|7\xa3\xf0\x7f?'
p5759
tp5760
bag19
(g20
(I0
tp5761
g22
tp5762
Rp5763
(I1
(I5
tp5764
g2876
I00
S'i\xc9O9\xc7\x86\xea;\x1eP\x10;\xbd!|?\xfa\xf3\xb5;'
p5765
tp5766
bag19
(g20
(I0
tp5767
g22
tp5768
Rp5769
(I1
(I5
tp5770
g2876
I00
S'\x00\x00\x80?X\xf9\x08.}&*3\xe8\t\xb5.!o\x180'
p5771
tp5772
bag19
(g20
(I0
tp5773
g22
tp5774
Rp5775
(I1
(I5
tp5776
g2876
I00
S'\xe4$\x1f:1t\xb3:\\\xb4~?\x89\xfa\x0e;\xa7\x9fl:'
p5777
tp5778
bag19
(g20
(I0
tp5779
g22
tp5780
Rp5781
(I1
(I5
tp5782
g2876
I00
S'\xa5X\xca3\x81\xd5\xc13\xff\\\xeb3\x85\xa5\xdd2\xfa\xff\x7f?'
p5783
tp5784
bag19
(g20
(I0
tp5785
g22
tp5786
Rp5787
(I1
(I5
tp5788
g2876
I00
S'\x14\xf9\x89<\nZ\xad;h\xdbx?\x06\xdey;\xd0=\x00;'
p5789
tp5790
bag19
(g20
(I0
tp5791
g22
tp5792
Rp5793
(I1
(I5
tp5794
g2876
I00
S'\x8a\xab}?\xdd\xbeQ:ng\x9f;qG\x8a:\xeb\x12\x1c;'
p5795
tp5796
bag19
(g20
(I0
tp5797
g22
tp5798
Rp5799
(I1
(I5
tp5800
g2876
I00
S'\xe4\x07\xcd1\xf2>33\xfc\xff\x7f?\xbe\xf8D4\xb4\xbb"2'
p5801
tp5802
bag19
(g20
(I0
tp5803
g22
tp5804
Rp5805
(I1
(I5
tp5806
g2876
I00
S'\xa2\x83F<*\xdaw;J\xc74<\xc30\xb39\x94\x04y?'
p5807
tp5808
bag19
(g20
(I0
tp5809
g22
tp5810
Rp5811
(I1
(I5
tp5812
g2876
I00
S"\xc3v\x84<\x9b\xa6\x9c>'L\xe3=\xa9\x9c\x8f=\xc8W\xfe>"
p5813
tp5814
bag19
(g20
(I0
tp5815
g22
tp5816
Rp5817
(I1
(I5
tp5818
g2876
I00
S'\xe5\x14\x16.hB\x953?\xd2\xed4\xf8\xff\x7f?\x9c^~2'
p5819
tp5820
bag19
(g20
(I0
tp5821
g22
tp5822
Rp5823
(I1
(I5
tp5824
g2876
I00
S'G\x9a\x1a3\xd2\xff\x7f?\xb0\xaa&3\xfc\xc886C-\xa82'
p5825
tp5826
bag19
(g20
(I0
tp5827
g22
tp5828
Rp5829
(I1
(I5
tp5830
g2876
I00
S'\xe9j\x079\xbb}N9&\xd2\x7f?\xef\xb6\xac94598'
p5831
tp5832
bag19
(g20
(I0
tp5833
g22
tp5834
Rp5835
(I1
(I5
tp5836
g2876
I00
S'G\x9a\x05<\xediY?\x9bk\x87<\\\x83\x02=\xc7\xe0\xc0='
p5837
tp5838
bag19
(g20
(I0
tp5839
g22
tp5840
Rp5841
(I1
(I5
tp5842
g2876
I00
S'\xf3m\x05<\x15^o?]\x81\x97;E:\x91<\xfe5\r='
p5843
tp5844
bag19
(g20
(I0
tp5845
g22
tp5846
Rp5847
(I1
(I5
tp5848
g2876
I00
S'\xea\xdd0;\xdb\x17?<\xfa\xedw?\xf8\x97p<ti";'
p5849
tp5850
bag19
(g20
(I0
tp5851
g22
tp5852
Rp5853
(I1
(I5
tp5854
g2876
I00
S'\x07Jj;.\xbc\x18;\x87\xedz?\xca\x9a]<%K\xc89'
p5855
tp5856
bag19
(g20
(I0
tp5857
g22
tp5858
Rp5859
(I1
(I5
tp5860
g2876
I00
S'A\x93\xcb;\xd7\xae\xe9=\x16N\x02=\x0cQJ?\x1f\xd1k='
p5861
tp5862
bag19
(g20
(I0
tp5863
g22
tp5864
Rp5865
(I1
(I5
tp5866
g2876
I00
S'\x9c\x1e\x933\xc0\xff\x7f?+A}3\x0c\x02n6\x0f\xa1\xc63'
p5867
tp5868
bag19
(g20
(I0
tp5869
g22
tp5870
Rp5871
(I1
(I5
tp5872
g2876
I00
S'\x14mZ8\r\x12\xb3:7\x06Q::T|?\x08\xa4F<'
p5873
tp5874
bag19
(g20
(I0
tp5875
g22
tp5876
Rp5877
(I1
(I5
tp5878
g2876
I00
S'`\xdbK:B\x96\x9d9!k\x7f?H\xbb\x84:{\x84=9'
p5879
tp5880
bag19
(g20
(I0
tp5881
g22
tp5882
Rp5883
(I1
(I5
tp5884
g2876
I00
S'\x16v\xbe:\x8ce\x9c;\xd9\xfd{?};\xfe;\x05R\xdb:'
p5885
tp5886
bag19
(g20
(I0
tp5887
g22
tp5888
Rp5889
(I1
(I5
tp5890
g2876
I00
S'0s >\xe8B\x91>F\xf0\xcb>\x88\xf6h=\xb7\xd1\xd5='
p5891
tp5892
bag19
(g20
(I0
tp5893
g22
tp5894
Rp5895
(I1
(I5
tp5896
g2876
I00
S'\x19\xb429\x88\x14j?p(\x969\xa3y\x8b:D>\xac='
p5897
tp5898
bag19
(g20
(I0
tp5899
g22
tp5900
Rp5901
(I1
(I5
tp5902
g2876
I00
S'\x92!\x988/2\x979\x0b\x16~?ip\xe2;&\xe0V9'
p5903
tp5904
bag19
(g20
(I0
tp5905
g22
tp5906
Rp5907
(I1
(I5
tp5908
g2876
I00
S'\x08}\x1b3\xef}\x1272\x17\xad7\x98\xfd\x7f?\\Q\xf36'
p5909
tp5910
bag19
(g20
(I0
tp5911
g22
tp5912
Rp5913
(I1
(I5
tp5914
g2876
I00
S'(\xe9Y4\xc66\xe15\xda\x1c\xb25z\xb2\xfa4\xc2\xff\x7f?'
p5915
tp5916
bag19
(g20
(I0
tp5917
g22
tp5918
Rp5919
(I1
(I5
tp5920
g2876
I00
S'\x00\x00\x80?g#R.\xacD>2}\xb3\x05/\xaa\x92\xa5/'
p5921
tp5922
bag19
(g20
(I0
tp5923
g22
tp5924
Rp5925
(I1
(I5
tp5926
g2876
I00
S'\xac!\n/\xa7\xad\x065\xec5\xf94\xf0\xff\x7f?\xc7&Y3'
p5927
tp5928
bag19
(g20
(I0
tp5929
g22
tp5930
Rp5931
(I1
(I5
tp5932
g2876
I00
S"\xa2\xa0\xaa3\xbc\xff\x7f?\xcb'k3\xc1\xad\x856\xa8a\xeb2"
p5933
tp5934
bag19
(g20
(I0
tp5935
g22
tp5936
Rp5937
(I1
(I5
tp5938
g2876
I00
S'\x9a\x83\xc7;\x16/\xbf;\xd2\x02z?\xbd\xc0x;;\x83\xfb;'
p5939
tp5940
bag19
(g20
(I0
tp5941
g22
tp5942
Rp5943
(I1
(I5
tp5944
g2876
I00
S'\xaaUu<\x19\x95\xf0<\xd7s\x0f?1\xdd\xaf>\xfb8T='
p5945
tp5946
bag19
(g20
(I0
tp5947
g22
tp5948
Rp5949
(I1
(I5
tp5950
g2876
I00
S'?2\xd90\xfc\xff\x7f?\xc0\xb9\x1b1&\x94\x914\xb8,\x1f2'
p5951
tp5952
bag19
(g20
(I0
tp5953
g22
tp5954
Rp5955
(I1
(I5
tp5956
g2876
I00
S'\xa3\xcd};U\xf8e;E\x1bx;p(j:\x94\xe9|?'
p5957
tp5958
bag19
(g20
(I0
tp5959
g22
tp5960
Rp5961
(I1
(I5
tp5962
g2876
I00
S'\xc1\xd5\x7f?\xdc\xfe\xe17\xd6\xab\xea9\xc1\xe1\xd37\x01\xe5\x179'
p5963
tp5964
bag19
(g20
(I0
tp5965
g22
tp5966
Rp5967
(I1
(I5
tp5968
g2876
I00
S'\x9d\xeb6=\x05\xfd\x10=\x9f\xd7#=V\x97+<\x9f\x95^?'
p5969
tp5970
bag19
(g20
(I0
tp5971
g22
tp5972
Rp5973
(I1
(I5
tp5974
g2876
I00
S'\xd2cP<d\xc9,<dxu?=/\x1d<\x95\x8a\x07<'
p5975
tp5976
bag19
(g20
(I0
tp5977
g22
tp5978
Rp5979
(I1
(I5
tp5980
g2876
I00
S'w\xc6\xa55\xae\xce\x9b6\xea\xfe\x7f?\xe8\x83\x1e7\xf41\xac5'
p5981
tp5982
bag19
(g20
(I0
tp5983
g22
tp5984
Rp5985
(I1
(I5
tp5986
g2876
I00
S'\x9a\xfa\x7f??\x82\x196\xa3\x83\x888\x82\x8a\xb46\xb2\xe0!7'
p5987
tp5988
bag19
(g20
(I0
tp5989
g22
tp5990
Rp5991
(I1
(I5
tp5992
g2876
I00
S'\x19\r\x82-\x00\x00\x80?4\xcc\xf9-(\x8b\xad2^\xa1\xa3,'
p5993
tp5994
bag19
(g20
(I0
tp5995
g22
tp5996
Rp5997
(I1
(I5
tp5998
g2876
I00
S'\x86\xa2\xa06\xc6\xfa\x7f?Q\x8c\x896)]\x848\tW\x047'
p5999
tp6000
bag19
(g20
(I0
tp6001
g22
tp6002
Rp6003
(I1
(I5
tp6004
g2876
I00
S'\xfb\xa2\xc7:\x9e\xcez?\x97k\x84:\xcd\xf9\x1f<\x98\xdd\x02<'
p6005
tp6006
bag19
(g20
(I0
tp6007
g22
tp6008
Rp6009
(I1
(I5
tp6010
g2876
I00
S'k\xba(;?\xf5u?\x12\x93";a\x12\x83<!\xdc\x94<'
p6011
tp6012
bag19
(g20
(I0
tp6013
g22
tp6014
Rp6015
(I1
(I5
tp6016
g2876
I00
S'a\xebC<u\xfa\x83<\xb26\x85=\x84Ne?[\xc96<'
p6017
tp6018
bag19
(g20
(I0
tp6019
g22
tp6020
Rp6021
(I1
(I5
tp6022
g2876
I00
S'A}b6\n\xfc\x7f?%\xd9,6\xd3\x9eW8\xd4\xb9O6'
p6023
tp6024
bag19
(g20
(I0
tp6025
g22
tp6026
Rp6027
(I1
(I5
tp6028
g2876
I00
S'\xda\xff\x7f?\xabNv3g\xb3\x076\xfe=F3;\x19i4'
p6029
tp6030
bag19
(g20
(I0
tp6031
g22
tp6032
Rp6033
(I1
(I5
tp6034
g2876
I00
S'\xc7\x86\x1b9J\xbb\x08;\x17p\xb99\x9c\x90u9\x06G\x7f?'
p6035
tp6036
bag19
(g20
(I0
tp6037
g22
tp6038
Rp6039
(I1
(I5
tp6040
g2876
I00
S'\xc7\x9b\x7f?+\xe1\xa78)r\x85:$\xab\xa78\xe8\x04\xb89'
p6041
tp6042
bag19
(g20
(I0
tp6043
g22
tp6044
Rp6045
(I1
(I5
tp6046
g2876
I00
S')\x1ej6V\xa8\xa68\xf3\xc3B7mP,8\x1c\xf7\x7f?'
p6047
tp6048
bag19
(g20
(I0
tp6049
g22
tp6050
Rp6051
(I1
(I5
tp6052
g2876
I00
S'\xe9\xe6]4\xc8\x1356\x86\x17A5\xac\x94\xbf4\xbe\xff\x7f?'
p6053
tp6054
bag19
(g20
(I0
tp6055
g22
tp6056
Rp6057
(I1
(I5
tp6058
g2876
I00
S';\x06\xde3\x91\xcf\xdd7\xd6\x89\xaa8\xa6\xf8\x7f?t\xda\x8e6'
p6059
tp6060
bag19
(g20
(I0
tp6061
g22
tp6062
Rp6063
(I1
(I5
tp6064
g2876
I00
S'6\xc0\xa5<\xb5B\xdf<O\x04\x18<\xd5\xd8,;\xfe\xcap?'
p6065
tp6066
bag19
(g20
(I0
tp6067
g22
tp6068
Rp6069
(I1
(I5
tp6070
g2876
I00
S'\xc8\xfe:?#\xe3\xf8<a\x05@=\xa3#1==\x9e\x18>'
p6071
tp6072
bag19
(g20
(I0
tp6073
g22
tp6074
Rp6075
(I1
(I5
tp6076
g2876
I00
S'\xfa\xff\x7f?t\xc9l1\xe4<\xbc4:\x9a`2P\x1fN3'
p6077
tp6078
bag19
(g20
(I0
tp6079
g22
tp6080
Rp6081
(I1
(I5
tp6082
g2876
I00
S'\xca\x0f\x0b=\xd8=.=73T?w\xbc@=\x8b\xc2B='
p6083
tp6084
bag19
(g20
(I0
tp6085
g22
tp6086
Rp6087
(I1
(I5
tp6088
g2876
I00
S'\xcdg`6\xe1\x9b\xaa8\xebP\x10;hf\x7f?\x11On8'
p6089
tp6090
bag19
(g20
(I0
tp6091
g22
tp6092
Rp6093
(I1
(I5
tp6094
g2876
I00
S'\xe6\xff\x7f?\xb1\xb5\xc21\xe2\xaf\xb95\xde(\n33\x10\xc43'
p6095
tp6096
bag19
(g20
(I0
tp6097
g22
tp6098
Rp6099
(I1
(I5
tp6100
g2876
I00
S'\x92\xff\x7f?\xf5\x07\x923Wu\xc46\x83\xe5\xd739\xf3\xfc4'
p6101
tp6102
bag19
(g20
(I0
tp6103
g22
tp6104
Rp6105
(I1
(I5
tp6106
g2876
I00
S'\xc3\xf2\x7f?\x92XW6\xc2\x9459u\x01\xd86\xb9N\xa17'
p6107
tp6108
bag19
(g20
(I0
tp6109
g22
tp6110
Rp6111
(I1
(I5
tp6112
g2876
I00
S'\xb8\xc2\xd9;\x97\x05\xf5>\xa5;\xe5>+\xa9X=dRh<'
p6113
tp6114
bag19
(g20
(I0
tp6115
g22
tp6116
Rp6117
(I1
(I5
tp6118
g2876
I00
S'\x18\xcc\x16<\x85|a?,\x92n<\x8a\\\xc1<\xf7\x18\x93='
p6119
tp6120
bag19
(g20
(I0
tp6121
g22
tp6122
Rp6123
(I1
(I5
tp6124
g2876
I00
S't\xeb\x7f?\xdcz\x0b7Zk|8L:\x146g\x93~9'
p6125
tp6126
bag19
(g20
(I0
tp6127
g22
tp6128
Rp6129
(I1
(I5
tp6130
g2876
I00
S'\xed\x01O<\x01\xeew=\x08\x97L?\xbb\x97\xe6<\x94\xca\xcb='
p6131
tp6132
bag19
(g20
(I0
tp6133
g22
tp6134
Rp6135
(I1
(I5
tp6136
g2876
I00
S'\xa1\x08\xbc9A\xb3\xf5:?72<)-|?A@\xef:'
p6137
tp6138
bag19
(g20
(I0
tp6139
g22
tp6140
Rp6141
(I1
(I5
tp6142
g2876
I00
S'Wx\xfe4\x8ab\xef7)\x06\x106~\r\x086\xd4\xfd\x7f?'
p6143
tp6144
bag19
(g20
(I0
tp6145
g22
tp6146
Rp6147
(I1
(I5
tp6148
g2876
I00
S"'\xe0\xa67\xf7v\x9d8\x1f\x19i9\xdc\xe7\x7f?\x95\rV8"
p6149
tp6150
bag19
(g20
(I0
tp6151
g22
tp6152
Rp6153
(I1
(I5
tp6154
g2876
I00
S'\x88\x80|?\x17\xdb\xba:z~\xf9;XA\xa9:\xd5nZ;'
p6155
tp6156
bag19
(g20
(I0
tp6157
g22
tp6158
Rp6159
(I1
(I5
tp6160
g2876
I00
S'\x02\xf7\x7f?\xb1\xb8\xbb6\xc0\xcb\xce8\xbe\x1c\xb56\xca/\xe87'
p6161
tp6162
bag19
(g20
(I0
tp6163
g22
tp6164
Rp6165
(I1
(I5
tp6166
g2876
I00
S';X\xab7\xf5\x87y9\x8b\x91\xb88\xbf\xb4\x1c9\x80\xdf\x7f?'
p6167
tp6168
bag19
(g20
(I0
tp6169
g22
tp6170
Rp6171
(I1
(I5
tp6172
g2876
I00
S'\x87\\{.\xe8\xf1\xf53\xd4\xe9\n5\xf6\xff\x7f?c\x8c\x053'
p6173
tp6174
bag19
(g20
(I0
tp6175
g22
tp6176
Rp6177
(I1
(I5
tp6178
g2876
I00
S'\x9a\xfb\x06:\xc5M\x89:\xc2\xcc#:\x1b\xf0\x9a:/#\x7f?'
p6179
tp6180
bag19
(g20
(I0
tp6181
g22
tp6182
Rp6183
(I1
(I5
tp6184
g2876
I00
S'\x97R\xc17\x9d\x99\x7f?\xc9\x9b\x0b8\xac\x13\x18:)\xafr:'
p6185
tp6186
bag19
(g20
(I0
tp6187
g22
tp6188
Rp6189
(I1
(I5
tp6190
g2876
I00
S'5\x15_:u\xc3O:{)~?\xf2B\xa9:\xbb\x16\x8b;'
p6191
tp6192
bag19
(g20
(I0
tp6193
g22
tp6194
Rp6195
(I1
(I5
tp6196
g2876
I00
S'\xe52\x91.)\x11\xf03\x13\x8a\x885\xee\xff\x7f?\xe3(\x172'
p6197
tp6198
bag19
(g20
(I0
tp6199
g22
tp6200
Rp6201
(I1
(I5
tp6202
g2876
I00
S'L\xcd\x80:\x14UI;$hO?W\xd3=>#M\xca9'
p6203
tp6204
bag19
(g20
(I0
tp6205
g22
tp6206
Rp6207
(I1
(I5
tp6208
g2876
I00
S'\xc0r\xf82\xd4\xff\x7f?\x9d\xd7L3\xd9\xf836\xed\xe6\x972'
p6209
tp6210
bag19
(g20
(I0
tp6211
g22
tp6212
Rp6213
(I1
(I5
tp6214
g2876
I00
S'k\x9a\xfe<K\x1d\x92;W\xc8m?67\t=\x13(\x0b;'
p6215
tp6216
bag19
(g20
(I0
tp6217
g22
tp6218
Rp6219
(I1
(I5
tp6220
g2876
I00
S'\xb4\xc8\xf12\x9c\x18\xac6x\x8aF9)\xf3\x7f?\x07\xc4\xbe5'
p6221
tp6222
bag19
(g20
(I0
tp6223
g22
tp6224
Rp6225
(I1
(I5
tp6226
g2876
I00
S'3\xe5U?q\xcc\xd0<\x94!\xd0=5\x0f8<e\xff\xd5<'
p6227
tp6228
bag19
(g20
(I0
tp6229
g22
tp6230
Rp6231
(I1
(I5
tp6232
g2876
I00
S'\xd8\xff\x7f?\xb4\x8f\xae2\xac\x8c\x126\x1e@\xbf3\xd7p.4'
p6233
tp6234
bag19
(g20
(I0
tp6235
g22
tp6236
Rp6237
(I1
(I5
tp6238
g2876
I00
S'\x82s\xcf5\xcag$6:\xfe\x7f?\xd3\xb6\xbc7\xbbK\xf84'
p6239
tp6240
bag19
(g20
(I0
tp6241
g22
tp6242
Rp6243
(I1
(I5
tp6244
g2876
I00
S'\x00\x00\x80?q4\xbe.\x8a\x08O3\x1bl\x82/\x0e4\xa60'
p6245
tp6246
bag19
(g20
(I0
tp6247
g22
tp6248
Rp6249
(I1
(I5
tp6250
g2876
I00
S'\x08\x05f0\x06\xd3\x8c5\xcd\x9d\x166\xc2\xff\x7f?\x95;\xb64'
p6251
tp6252
bag19
(g20
(I0
tp6253
g22
tp6254
Rp6255
(I1
(I5
tp6256
g2876
I00
S'\xc8\x1c35\xd7\xadl6\xd7e\x066\x15\x19:5\x8c\xff\x7f?'
p6257
tp6258
bag19
(g20
(I0
tp6259
g22
tp6260
Rp6261
(I1
(I5
tp6262
g2876
I00
S'p\xfe\x7f?\x12Ry4\x7f\xec\xb57\xe3\xc9\xf94\xd5\x9a\xb85'
p6263
tp6264
bag19
(g20
(I0
tp6265
g22
tp6266
Rp6267
(I1
(I5
tp6268
g2876
I00
S'\xf0\xff\x7f?\x1d\xcd\x951K\x16\x845\xe6b\x062;p\x0b3'
p6269
tp6270
bag19
(g20
(I0
tp6271
g22
tp6272
Rp6273
(I1
(I5
tp6274
g2876
I00
S')\xed\x7f?\xd1\xff\x9d7\xca\xefW9\xa2.27V7Z8'
p6275
tp6276
bag19
(g20
(I0
tp6277
g22
tp6278
Rp6279
(I1
(I5
tp6280
g2876
I00
S'o\xad\x7f?\r1\xcb8\xa9NN:|)*9P\x1d`9'
p6281
tp6282
bag19
(g20
(I0
tp6283
g22
tp6284
Rp6285
(I1
(I5
tp6286
g2876
I00
S'\x16\xc6\xbc6\xd3\x9d\x0f7L\xfd\x7f?\x8a\xd8\xd47\x07\xe3\xdd5'
p6287
tp6288
bag19
(g20
(I0
tp6289
g22
tp6290
Rp6291
(I1
(I5
tp6292
g2876
I00
S'\xc1\x83\xed6s\xf9?7\x13\x8c\x1f7\xe2\x0736\xfc\xfd\x7f?'
p6293
tp6294
bag19
(g20
(I0
tp6295
g22
tp6296
Rp6297
(I1
(I5
tp6298
g2876
I00
S'\xd7\xca\xb96\xc1(\xf36|\xfd\x7f?\xa7\x15\xa57\x850\xc66'
p6299
tp6300
bag19
(g20
(I0
tp6301
g22
tp6302
Rp6303
(I1
(I5
tp6304
g2876
I00
S'\x89\x8e\x928|^\r;\x8b\xbd\x04;r9}?r\xef\xd7;'
p6305
tp6306
bag19
(g20
(I0
tp6307
g22
tp6308
Rp6309
(I1
(I5
tp6310
g2876
I00
S'\xa3\xb7\xd47:\xd9\x7f?\xb0\xd3\x118`n\x879\x168\x8f9'
p6311
tp6312
bag19
(g20
(I0
tp6313
g22
tp6314
Rp6315
(I1
(I5
tp6316
g2876
I00
S'\x8f\xcc[;\x8e\xc59<|$i?\xc6\xdb\x87=\xe3I\x07<'
p6317
tp6318
bag19
(g20
(I0
tp6319
g22
tp6320
Rp6321
(I1
(I5
tp6322
g2876
I00
S'\xc4\xe5\xba;\xcb\xeb\x04<s\xb9t?\\\x10\xac;J\x9e\xcc<'
p6323
tp6324
bag19
(g20
(I0
tp6325
g22
tp6326
Rp6327
(I1
(I5
tp6328
g2876
I00
S'@\x0f\xb5<\xfe\xb9\x15=q\x84\xb1>\xa0|\x9e<\xc9E\x13?'
p6329
tp6330
bag19
(g20
(I0
tp6331
g22
tp6332
Rp6333
(I1
(I5
tp6334
g2876
I00
S'\x99\xc9b?"\x1c\x9d;p\x1f\xc7=\xb66\x97;\x13\xea\xf4;'
p6335
tp6336
bag19
(g20
(I0
tp6337
g22
tp6338
Rp6339
(I1
(I5
tp6340
g2876
I00
S'o\xfa\x01=\xa4\xb6O?\xd0\x8ef<n\x18\xa8<\xbeu\xfa='
p6341
tp6342
bag19
(g20
(I0
tp6343
g22
tp6344
Rp6345
(I1
(I5
tp6346
g2876
I00
S'\xba~87e\xad\xb47z\xfe\xee7\x88\xc8D7<\xfb\x7f?'
p6347
tp6348
bag19
(g20
(I0
tp6349
g22
tp6350
Rp6351
(I1
(I5
tp6352
g2876
I00
S'8\xbc\xa8<Fp\xfe<a\x05d?L\x0b*=\xc9\x10\x84<'
p6353
tp6354
bag19
(g20
(I0
tp6355
g22
tp6356
Rp6357
(I1
(I5
tp6358
g2876
I00
S'8%\xa74\xf8\xfe\x7f?\xcc+\r5\xbb\xc2t7\x1b\x1a\xdf4'
p6359
tp6360
bag19
(g20
(I0
tp6361
g22
tp6362
Rp6363
(I1
(I5
tp6364
g2876
I00
S'\x1c\xea%6H\xfb\x7f?\x80E\xfb5sS\x838\xf0m\xa96'
p6365
tp6366
bag19
(g20
(I0
tp6367
g22
tp6368
Rp6369
(I1
(I5
tp6370
g2876
I00
S'j\xff\x7f?\xa5L\xc53\x9b_\x087\xa3,e4c\x82\x015'
p6371
tp6372
bag19
(g20
(I0
tp6373
g22
tp6374
Rp6375
(I1
(I5
tp6376
g2876
I00
S'\x99;\x96=e\xfdX>\xb8f\r?\xa2\x13f=\x06\x8a\xd9='
p6377
tp6378
bag19
(g20
(I0
tp6379
g22
tp6380
Rp6381
(I1
(I5
tp6382
g2876
I00
S'\xfa\xcd\x7f?&\xb8\x928\r\xa9\xf29z\x88\x8b7\xeaC`9'
p6383
tp6384
bag19
(g20
(I0
tp6385
g22
tp6386
Rp6387
(I1
(I5
tp6388
g2876
I00
S'Wt\xc95ngj6\x0e\xff\x7f?\xe2\xac\n7\xb0\x86\x9f5'
p6389
tp6390
bag19
(g20
(I0
tp6391
g22
tp6392
Rp6393
(I1
(I5
tp6394
g2876
I00
S'$6\x87;3`w>9\x0b\xb9;G\xd2\xf8<\xdf\xe07?'
p6395
tp6396
bag19
(g20
(I0
tp6397
g22
tp6398
Rp6399
(I1
(I5
tp6400
g2876
I00
S'9\x82*97S\xbc9\\\x86\x7f?\x87\xa5\xa1:\x00\xce\xd38'
p6401
tp6402
bag19
(g20
(I0
tp6403
g22
tp6404
Rp6405
(I1
(I5
tp6406
g2876
I00
S'\x9cC\x9e8\x9e\xc0\x7f?;\xda\x928`+\xef9\x99\xa7\xbf9'
p6407
tp6408
bag19
(g20
(I0
tp6409
g22
tp6410
Rp6411
(I1
(I5
tp6412
g2876
I00
S'\xa1Y\xc42\xe6\xff\x7f?I\xc2\xe52\x84=\xca5N\xc0\xa82'
p6413
tp6414
bag19
(g20
(I0
tp6415
g22
tp6416
Rp6417
(I1
(I5
tp6418
g2876
I00
S'\x86\x98\xc3=&\xb99=\xc1?\x84=8r\x84<\xd4EG?'
p6419
tp6420
bag19
(g20
(I0
tp6421
g22
tp6422
Rp6423
(I1
(I5
tp6424
g2876
I00
S'\xe5=\xde5\xbeq\x8399\xc4+:\xb4\xc0\x7f?\xd7\x13t8'
p6425
tp6426
bag19
(g20
(I0
tp6427
g22
tp6428
Rp6429
(I1
(I5
tp6430
g2876
I00
S'\x87\x84\x1b5\x9e\x84@6j|\xf95\xda\xbb\xc25\x8e\xff\x7f?'
p6431
tp6432
bag19
(g20
(I0
tp6433
g22
tp6434
Rp6435
(I1
(I5
tp6436
g2876
I00
S'W\x0fv=7\xfb\xfb=kf\xfb=\xd4,%?\x1f`H='
p6437
tp6438
bag19
(g20
(I0
tp6439
g22
tp6440
Rp6441
(I1
(I5
tp6442
g2876
I00
S'\x91D|?\\{\xa4;\xd0\xc3\xae;\xdb\xf8]:Xs];'
p6443
tp6444
bag19
(g20
(I0
tp6445
g22
tp6446
Rp6447
(I1
(I5
tp6448
g2876
I00
S'\xddxm?R\x1c\xa9:\xe0\x92\x8a=\x9f\xf2>:${0;'
p6449
tp6450
bag19
(g20
(I0
tp6451
g22
tp6452
Rp6453
(I1
(I5
tp6454
g2876
I00
S'\xd0\x1c\xcb:\x0c-@<A\xd6.<w`x?\xd3\xf6\xbe;'
p6455
tp6456
bag19
(g20
(I0
tp6457
g22
tp6458
Rp6459
(I1
(I5
tp6460
g2876
I00
S'\xa2\xed\xf96\xc2\xde\x7f?\xf0\xa908dW\xea9\xed\xf307'
p6461
tp6462
bag19
(g20
(I0
tp6463
g22
tp6464
Rp6465
(I1
(I5
tp6466
g2876
I00
S'\x8c\xa1T7W\xef\x7f?\xbf\x97\xaa7C\x10K9\x13\xa6\xe67'
p6467
tp6468
bag19
(g20
(I0
tp6469
g22
tp6470
Rp6471
(I1
(I5
tp6472
g2876
I00
S'\xf4i\xba6\x8e\xe1\x7f?Mv87\x82\x8b\xe89\x86[\x966'
p6473
tp6474
bag19
(g20
(I0
tp6475
g22
tp6476
Rp6477
(I1
(I5
tp6478
g2876
I00
S'\xb9Ru?5\x9d\x97;\x10\xa3_<\x8c\x8a\x9d:\xbb\x17\xb6<'
p6479
tp6480
bag19
(g20
(I0
tp6481
g22
tp6482
Rp6483
(I1
(I5
tp6484
g2876
I00
S'\xba\xbf\xb09\xc1c\x97:\xb2{~?a)\x8c;(\x0c#9'
p6485
tp6486
bag19
(g20
(I0
tp6487
g22
tp6488
Rp6489
(I1
(I5
tp6490
g2876
I00
S'\xf3\xd3\xbd6\xd7(\x929H\x82#9h\xbf\x7f?\xde\xeb\x0e:'
p6491
tp6492
bag19
(g20
(I0
tp6493
g22
tp6494
Rp6495
(I1
(I5
tp6496
g2876
I00
S'/\x1d\x9d8\x8db\xe98M\xe5\x7f?m%T9\x0eN\x9e7'
p6497
tp6498
bag19
(g20
(I0
tp6499
g22
tp6500
Rp6501
(I1
(I5
tp6502
g2876
I00
S'\xde\xff\x7f?^\xd9\x802%\xf3\xff5\xd3Wr3\x83w+4'
p6503
tp6504
bag19
(g20
(I0
tp6505
g22
tp6506
Rp6507
(I1
(I5
tp6508
g2876
I00
S'\xe8\xff\x7f?0z\xbf1\xb5\xb6\xb05\x97-\xa02E\xb6\xa53'
p6509
tp6510
bag19
(g20
(I0
tp6511
g22
tp6512
Rp6513
(I1
(I5
tp6514
g2876
I00
S'\xc2\xa3Y5\n\x95\x9a7X=\xa86D\x17h:d\xc4\x7f?'
p6515
tp6516
bag19
(g20
(I0
tp6517
g22
tp6518
Rp6519
(I1
(I5
tp6520
g2876
I00
S'\xc8 K5\xa3\x0e\xa45\xba\xff\x7f?5\x07\x9c5\x0ew\x7f5'
p6521
tp6522
bag19
(g20
(I0
tp6523
g22
tp6524
Rp6525
(I1
(I5
tp6526
g2876
I00
S'\xb9d\xe9;|\xe0#<|\x0c\x0c>\x8duW?p\x84\x92;'
p6527
tp6528
bag19
(g20
(I0
tp6529
g22
tp6530
Rp6531
(I1
(I5
tp6532
g2876
I00
S"F\xc4\xd26r^\xc86\x98\xfd\x7f?\xa9'\xb873n+6"
p6533
tp6534
bag19
(g20
(I0
tp6535
g22
tp6536
Rp6537
(I1
(I5
tp6538
g2876
I00
S'\x13\x19j8T\x07\x1a9\x91#\xed8M1\x1f9\\\xe1\x7f?'
p6539
tp6540
bag19
(g20
(I0
tp6541
g22
tp6542
Rp6543
(I1
(I5
tp6544
g2876
I00
S'\xf1\x1752\xfa^\xac6v\xa1\x177\x00\xff\x7f?P \x925'
p6545
tp6546
bag19
(g20
(I0
tp6547
g22
tp6548
Rp6549
(I1
(I5
tp6550
g2876
I00
S'\x0e\xf7\x7f?\\\x94\x197}f\xc38\xdc\x9e\xd36\x8c\x97\xe87'
p6551
tp6552
bag19
(g20
(I0
tp6553
g22
tp6554
Rp6555
(I1
(I5
tp6556
g2876
I00
S'\xa2\x83h<F\xea\x06=\x01\x82\\?\xf0\xd2\xaa<\x9d\xb5\x90='
p6557
tp6558
bag19
(g20
(I0
tp6559
g22
tp6560
Rp6561
(I1
(I5
tp6562
g2876
I00
S'\x88\x95\x111\xac\xbdy62\xf2F6t\xff\x7f?\xd9\x99\xe65'
p6563
tp6564
bag19
(g20
(I0
tp6565
g22
tp6566
Rp6567
(I1
(I5
tp6568
g2876
I00
S"'\xd5\x9f9\xf5\xdb\x90;\xb9\xe9\x9f;9)\x05=\xe77u?"
p6569
tp6570
bag19
(g20
(I0
tp6571
g22
tp6572
Rp6573
(I1
(I5
tp6574
g2876
I00
S'\xb4\x12\xfd9A86:\x02%\x7f?\xde\xce\x07;?\xeb\xbf8'
p6575
tp6576
bag19
(g20
(I0
tp6577
g22
tp6578
Rp6579
(I1
(I5
tp6580
g2876
I00
S"\xed^y?\x91\xb6\x0f;\xc3iR<\xf6\xba\xe3:'v\x15<"
p6581
tp6582
bag19
(g20
(I0
tp6583
g22
tp6584
Rp6585
(I1
(I5
tp6586
g2876
I00
S'\xdb\xbf\xac6Z\xf7\x7f?\xb3\x92\xe36\x91\xcb\xec8([\xf06'
p6587
tp6588
bag19
(g20
(I0
tp6589
g22
tp6590
Rp6591
(I1
(I5
tp6592
g2876
I00
S'A\xab\xcd7\x06\xb7\xcb8|5\xd48NO\xa684\xec\x7f?'
p6593
tp6594
bag19
(g20
(I0
tp6595
g22
tp6596
Rp6597
(I1
(I5
tp6598
g2876
I00
S"q\x93q:\x8fxY>\xb7\x89D?\x18;\x96<*\xa1':"
p6599
tp6600
bag19
(g20
(I0
tp6601
g22
tp6602
Rp6603
(I1
(I5
tp6604
g2876
I00
S'\xd0\xdaZ=5\x13\xae=\xa9\xa3\r?U\x1c\x8d>\x82\xe1\x05='
p6605
tp6606
bag19
(g20
(I0
tp6607
g22
tp6608
Rp6609
(I1
(I5
tp6610
g2876
I00
S'iF\x83<Y\x14\x83>[\xd1%?\xecj6=l9\x12='
p6611
tp6612
bag19
(g20
(I0
tp6613
g22
tp6614
Rp6615
(I1
(I5
tp6616
g2876
I00
S'\xa6\x12\xff;~\xae\x9e;<M-<v\x13\xd2<\xad~s?'
p6617
tp6618
bag19
(g20
(I0
tp6619
g22
tp6620
Rp6621
(I1
(I5
tp6622
g2876
I00
S'\xbc\xaa[=\x8e\xbb\xe6<\xc0a\x9e=\xe5I\xb8;\xac\xd2U?'
p6623
tp6624
bag19
(g20
(I0
tp6625
g22
tp6626
Rp6627
(I1
(I5
tp6628
g2876
I00
S'\xf2\x1d\xa390]E=\x0b\xdc\x12<~\xd8o?C\xed\xb8;'
p6629
tp6630
bag19
(g20
(I0
tp6631
g22
tp6632
Rp6633
(I1
(I5
tp6634
g2876
I00
S'\x1f?\xd3;H\xa6K<\x8fu\x9b;[\x7f%;\x7fNy?'
p6635
tp6636
bag19
(g20
(I0
tp6637
g22
tp6638
Rp6639
(I1
(I5
tp6640
g2876
I00
S'\x10\xe4\xd79\x9a9>::M\xb19\xf8\xab\xf38\xaf\x97\x7f?'
p6641
tp6642
bag19
(g20
(I0
tp6643
g22
tp6644
Rp6645
(I1
(I5
tp6646
g2876
I00
S'\x9b\xb6\xce9O\xd9}?\xf1\x01\xc29\xcc,\xec:\xffB\xbf;'
p6647
tp6648
bag19
(g20
(I0
tp6649
g22
tp6650
Rp6651
(I1
(I5
tp6652
g2876
I00
S';/\x13:\xbf\xde\x03<yT\x91;)C\\?\x9e\x97\x01>'
p6653
tp6654
bag19
(g20
(I0
tp6655
g22
tp6656
Rp6657
(I1
(I5
tp6658
g2876
I00
S'rd)>\xde\xfcx>*En=\xd37\xe2<\x9bq\x01?'
p6659
tp6660
bag19
(g20
(I0
tp6661
g22
tp6662
Rp6663
(I1
(I5
tp6664
g2876
I00
S'\xa5r?2\xea\xff\x7f?\xb8\x0e\xa32\xbb\x9f\xb25\x19y&2'
p6665
tp6666
bag19
(g20
(I0
tp6667
g22
tp6668
Rp6669
(I1
(I5
tp6670
g2876
I00
S'\xd7V\xcc:>s@;i\x92|?\x0f\x00\xd3:\xe6\xbc\xee;'
p6671
tp6672
bag19
(g20
(I0
tp6673
g22
tp6674
Rp6675
(I1
(I5
tp6676
g2876
I00
S'\xa7s\xaa5\x9bOy8\xce\x8a\xb46\xbf\x9c\xeb66\xfb\x7f?'
p6677
tp6678
bag19
(g20
(I0
tp6679
g22
tp6680
Rp6681
(I1
(I5
tp6682
g2876
I00
S'\x83\x83\x82:\x8734:\xef\x87\xac:\x9a\x08m9\x9d,\x7f?'
p6683
tp6684
bag19
(g20
(I0
tp6685
g22
tp6686
Rp6687
(I1
(I5
tp6688
g2876
I00
S'\xf2\xd8\x7f?\xde\\_6q@\x15:\xfb\xd8\x1a7N*l7'
p6689
tp6690
bag19
(g20
(I0
tp6691
g22
tp6692
Rp6693
(I1
(I5
tp6694
g2876
I00
S'\xdayq=\x1e\xb4>=\xa8\xbf\x89<\x83\x1cG<\xb1\x92]?'
p6695
tp6696
bag19
(g20
(I0
tp6697
g22
tp6698
Rp6699
(I1
(I5
tp6700
g2876
I00
S'{\x1d\x1c5J\xfe\x7f?\xa4l\x1b5e\xda\xcd7\xcc\x97\xdf4'
p6701
tp6702
bag19
(g20
(I0
tp6703
g22
tp6704
Rp6705
(I1
(I5
tp6706
g2876
I00
S'<\x83"5\xea\xed\xd18\xc2W\xc28w\xf1\x7f?\x07\r\xee7'
p6707
tp6708
bag19
(g20
(I0
tp6709
g22
tp6710
Rp6711
(I1
(I5
tp6712
g2876
I00
S'M\x8b\x7f?\xed3\xf18\xcfr\x1b:p\x06\xca8J\xed\x7f:'
p6713
tp6714
bag19
(g20
(I0
tp6715
g22
tp6716
Rp6717
(I1
(I5
tp6718
g2876
I00
S'\x84%\xc83F2\xad8*\x04_8\x02\xf6\x7f?\xc0W\x8b7'
p6719
tp6720
bag19
(g20
(I0
tp6721
g22
tp6722
Rp6723
(I1
(I5
tp6724
g2876
I00
S'\xc3\xbb\x99=\r\xba\x94<s\x10@?\xd3\x16\xca;]\xf8\x19>'
p6725
tp6726
bag19
(g20
(I0
tp6727
g22
tp6728
Rp6729
(I1
(I5
tp6730
g2876
I00
S'\xd7.);\x1cf\xd3;\xe3\xaby;=\xba:<p\xcby?'
p6731
tp6732
bag19
(g20
(I0
tp6733
g22
tp6734
Rp6735
(I1
(I5
tp6736
g2876
I00
S'9\xe70=\x0e\xdf\x82=1\xa8\x9d>\xd2\xad\t?\x05<A='
p6737
tp6738
bag19
(g20
(I0
tp6739
g22
tp6740
Rp6741
(I1
(I5
tp6742
g2876
I00
S'\xefW~,\x02DA.\x03r7.\xfa\xfd\x80-\x00\x00\x80?'
p6743
tp6744
bag19
(g20
(I0
tp6745
g22
tp6746
Rp6747
(I1
(I5
tp6748
g2876
I00
S'\xba\xfc\x7f?\xc9\x10\xa05\xe9a-8lb\x1d6T\xed\xa96'
p6749
tp6750
bag19
(g20
(I0
tp6751
g22
tp6752
Rp6753
(I1
(I5
tp6754
g2876
I00
S'\x9a\xff\x7f?\xe9\xb6\xd03\x08\xa9\xb36\xe9\xeem4\xb2M\xd14'
p6755
tp6756
bag19
(g20
(I0
tp6757
g22
tp6758
Rp6759
(I1
(I5
tp6760
g2876
I00
S'\x96\x1bO2~\x06\xcd3\x97\x0f\xca3\xad]h2\xfc\xff\x7f?'
p6761
tp6762
bag19
(g20
(I0
tp6763
g22
tp6764
Rp6765
(I1
(I5
tp6766
g2876
I00
S'T\xb7z?\x80Q\x87:\xf3&\t<OX\xd8:|\x0e\x1d<'
p6767
tp6768
bag19
(g20
(I0
tp6769
g22
tp6770
Rp6771
(I1
(I5
tp6772
g2876
I00
S'}\xcf\x947\xab\x8078\x06\xfc58\r\xb9\x8e7\x02\xf8\x7f?'
p6773
tp6774
bag19
(g20
(I0
tp6775
g22
tp6776
Rp6777
(I1
(I5
tp6778
g2876
I00
S"\xc5'\xaf=\xd7\xc9\xe7=+\xfd8?\xc4\xbe\x80=N\x99\x81<"
p6779
tp6780
bag19
(g20
(I0
tp6781
g22
tp6782
Rp6783
(I1
(I5
tp6784
g2876
I00
S'\x95\xd6\xed5d\xfd\x7f?\x1b\xaa 6df\x088\xf62R6'
p6785
tp6786
bag19
(g20
(I0
tp6787
g22
tp6788
Rp6789
(I1
(I5
tp6790
g2876
I00
S'\xb6\xb762Q_\xcf2\x1a\xf7*3M\x8132\xfe\xff\x7f?'
p6791
tp6792
bag19
(g20
(I0
tp6793
g22
tp6794
Rp6795
(I1
(I5
tp6796
g2876
I00
S'\xed=\x10:\x12\xb5\xec;\xfb\xe1\x11<\x8e&z?\n8\xca;'
p6797
tp6798
bag19
(g20
(I0
tp6799
g22
tp6800
Rp6801
(I1
(I5
tp6802
g2876
I00
S'8\xf7\x7f?\xb0\x04p6\x1b\xf5\xdf8\xbbK\xd46F\xbd\x907'
p6803
tp6804
bag19
(g20
(I0
tp6805
g22
tp6806
Rp6807
(I1
(I5
tp6808
g2876
I00
S'2\x862>\xc6w\x1d=\x9b4\x12?\x18}?>\x9ab\xee<'
p6809
tp6810
bag19
(g20
(I0
tp6811
g22
tp6812
Rp6813
(I1
(I5
tp6814
g2876
I00
S'\xec\xeb\xe82\xc6\x1b\xda3\xfa\xff\x7f?\xfbSo4d\xf5\xbf2'
p6815
tp6816
bag19
(g20
(I0
tp6817
g22
tp6818
Rp6819
(I1
(I5
tp6820
g2876
I00
S'\x93\x89.=bj9>\x8aB$?\xe968=\xaf\xb6\xb7='
p6821
tp6822
bag19
(g20
(I0
tp6823
g22
tp6824
Rp6825
(I1
(I5
tp6826
g2876
I00
S'\xc7O\xcd4\x1c\xe5:6\xe4\x98\xc35\xe1\x05\xa45\x9e\xff\x7f?'
p6827
tp6828
bag19
(g20
(I0
tp6829
g22
tp6830
Rp6831
(I1
(I5
tp6832
g2876
I00
S'6\xd7\x063\x1bf\xc54\xb3\xd3`4X\xa3s4\xf2\xff\x7f?'
p6833
tp6834
bag19
(g20
(I0
tp6835
g22
tp6836
Rp6837
(I1
(I5
tp6838
g2876
I00
S'o\x8fV6R7N9\xdf\xa6p:\xf6\xaa\x7f?\x02^<9'
p6839
tp6840
bag19
(g20
(I0
tp6841
g22
tp6842
Rp6843
(I1
(I5
tp6844
g2876
I00
S'\xae\xb5\x7f?\x9b\x14\x938\xfc\x10*:c\xc7/9(\xcd\x819'
p6845
tp6846
bag19
(g20
(I0
tp6847
g22
tp6848
Rp6849
(I1
(I5
tp6850
g2876
I00
S'\x9d\xads?Q\xb6\xfa:\xcc\xa1\xd3;\x19I\x9a<\x9fo\xab<'
p6851
tp6852
bag19
(g20
(I0
tp6853
g22
tp6854
Rp6855
(I1
(I5
tp6856
g2876
I00
S'\xa9\xf1\x7f?\x8e\x9fr7r\x93\x149\xed\xfc 7+i^8'
p6857
tp6858
bag19
(g20
(I0
tp6859
g22
tp6860
Rp6861
(I1
(I5
tp6862
g2876
I00
S'\x8e\xb9~?2#\xa38\x10\xc9\x8c;w\x1a\xc48\xad\x99\x06:'
p6863
tp6864
bag19
(g20
(I0
tp6865
g22
tp6866
Rp6867
(I1
(I5
tp6868
g2876
I00
S'\xd2\xd1\xfe5\x99\xee\x7f?\xac\x87L6\x0c\x17\x149\xf8B\xfa8'
p6869
tp6870
bag19
(g20
(I0
tp6871
g22
tp6872
Rp6873
(I1
(I5
tp6874
g2876
I00
S'f\xfc\xd69\x88I\xb6;m*\xf89\xff\xd0\x8b9\rH~?'
p6875
tp6876
bag19
(g20
(I0
tp6877
g22
tp6878
Rp6879
(I1
(I5
tp6880
g2876
I00
S'\xaf\x14\x017\x07\x8c\x967\xd4\xf6\x7f?\x88v\xe88\x8d\x07d6'
p6881
tp6882
bag19
(g20
(I0
tp6883
g22
tp6884
Rp6885
(I1
(I5
tp6886
g2876
I00
S'\xfb\xf1\x895\x96\xfe\x7f?\xda\x05k5 Cn7\xfc\xac\xb76'
p6887
tp6888
bag19
(g20
(I0
tp6889
g22
tp6890
Rp6891
(I1
(I5
tp6892
g2876
I00
S'E\xcat?\x94\xdb\xb9;\xd2g\xa8<\x94\x96\xdc;Sf1<'
p6893
tp6894
bag19
(g20
(I0
tp6895
g22
tp6896
Rp6897
(I1
(I5
tp6898
g2876
I00
S'\x1f\x13\x99;z\x85x;\xd9\xc9z?DF+<<\xc5\xbc:'
p6899
tp6900
bag19
(g20
(I0
tp6901
g22
tp6902
Rp6903
(I1
(I5
tp6904
g2876
I00
S'y\xfbN<\xea\xcd\x05>\xa4?\xf8>u\x97\xb6>ECy<'
p6905
tp6906
bag19
(g20
(I0
tp6907
g22
tp6908
Rp6909
(I1
(I5
tp6910
g2876
I00
S'\x17\x87\xd99q9I?r\xab=:Tl\x0f;\x1d\xb2W>'
p6911
tp6912
bag19
(g20
(I0
tp6913
g22
tp6914
Rp6915
(I1
(I5
tp6916
g2876
I00
S'k\xbe\x0c7K_W:\x82\x8f\x87:4z\x7f?}\xf399'
p6917
tp6918
bag19
(g20
(I0
tp6919
g22
tp6920
Rp6921
(I1
(I5
tp6922
g2876
I00
S'|3@7\xb5\x8b\xcf7\xd4\xf9\x7f?)\xfeJ8\x97\xd8\x1f7'
p6923
tp6924
bag19
(g20
(I0
tp6925
g22
tp6926
Rp6927
(I1
(I5
tp6928
g2876
I00
S'\x86z\xa14\xc3(\x036\x02\xc8\x9c5\xc2\xe6\xd65\xac\xff\x7f?'
p6929
tp6930
bag19
(g20
(I0
tp6931
g22
tp6932
Rp6933
(I1
(I5
tp6934
g2876
I00
S'N\x8af:ktv;\xad\xe9f?\xe6|\xbd=!\x81Z:'
p6935
tp6936
bag19
(g20
(I0
tp6937
g22
tp6938
Rp6939
(I1
(I5
tp6940
g2876
I00
S'\xc7\xef\x08>l\x88D>26q=\xb8\xee\x1f=\xa5\x8f\x13?'
p6941
tp6942
bag19
(g20
(I0
tp6943
g22
tp6944
Rp6945
(I1
(I5
tp6946
g2876
I00
S'\xb4\xff\x7f?Y\x0e\x8b3\xc2"~6\xf19\x853#{\x015'
p6947
tp6948
bag19
(g20
(I0
tp6949
g22
tp6950
Rp6951
(I1
(I5
tp6952
g2876
I00
S'<\x94\x1c3\xc9\x94W7\xa5Z\xf07\xee\xfc\x7f?+\x12\xb56'
p6953
tp6954
bag19
(g20
(I0
tp6955
g22
tp6956
Rp6957
(I1
(I5
tp6958
g2876
I00
S'\xa4\xf0\xe56"\xb0\x068\x88\xe8\x7f?\xce\'\xa39\x97*\x067'
p6959
tp6960
bag19
(g20
(I0
tp6961
g22
tp6962
Rp6963
(I1
(I5
tp6964
g2876
I00
S'%a\xee;)\xfc\xd4=\xd1\xd8Z<\xd7\xb4\n=\x08mW?'
p6965
tp6966
bag19
(g20
(I0
tp6967
g22
tp6968
Rp6969
(I1
(I5
tp6970
g2876
I00
S'\x96$\x072\x16372\xf5k,2*\x9bD1\x00\x00\x80?'
p6971
tp6972
bag19
(g20
(I0
tp6973
g22
tp6974
Rp6975
(I1
(I5
tp6976
g2876
I00
S'l}\xeb5Fn\x848\x81q\xe76\x0fF\xbf6\xec\xfa\x7f?'
p6977
tp6978
bag19
(g20
(I0
tp6979
g22
tp6980
Rp6981
(I1
(I5
tp6982
g2876
I00
S"?\x16\xea;_'\x93=z\xf3\x9a=6\x82\xea;s\x93V?"
p6983
tp6984
bag19
(g20
(I0
tp6985
g22
tp6986
Rp6987
(I1
(I5
tp6988
g2876
I00
S'\xca\xfb\x7f?\xbd\xd8\xa65\xba\x97c8\x03\xb8\xa95 \xe9\xfa6'
p6989
tp6990
bag19
(g20
(I0
tp6991
g22
tp6992
Rp6993
(I1
(I5
tp6994
g2876
I00
S'\xc8k\x06:\x8c1\x00:\xaa8\x7f?K\x9b\xec:5\x1dv9'
p6995
tp6996
bag19
(g20
(I0
tp6997
g22
tp6998
Rp6999
(I1
(I5
tp7000
g2876
I00
S'\x80\x89\x0f:\x16Sl?>\xf3\x8b:q\xf3\xea;%i\x8b='
p7001
tp7002
bag19
(g20
(I0
tp7003
g22
tp7004
Rp7005
(I1
(I5
tp7006
g2876
I00
S'd\x05o;\x1f\xfd\x9b;\xdf\x83u?\xdc)\xfe<\xe2\xa3\xc7:'
p7007
tp7008
bag19
(g20
(I0
tp7009
g22
tp7010
Rp7011
(I1
(I5
tp7012
g2876
I00
S'\x92|\xd1;\xee\xe1r<Q\x9fw<\xe6\xf5\x88;\x16\xa1u?'
p7013
tp7014
bag19
(g20
(I0
tp7015
g22
tp7016
Rp7017
(I1
(I5
tp7018
g2876
I00
S'\xbfO\x199)\xeb~?)\x046:`\xe2\x00;\xfa\xbd\xb9:'
p7019
tp7020
bag19
(g20
(I0
tp7021
g22
tp7022
Rp7023
(I1
(I5
tp7024
g2876
I00
S'\xbb\xbb\xe67\xba\xe2-:\xea\xcb{83\x03v8\xf3\xca\x7f?'
p7025
tp7026
bag19
(g20
(I0
tp7027
g22
tp7028
Rp7029
(I1
(I5
tp7030
g2876
I00
S'\xee\xf5\x9f<\xfc:\x95<\xc2\xdc\xe0;\xd6\xe5~;\xd9\x95s?'
p7031
tp7032
bag19
(g20
(I0
tp7033
g22
tp7034
Rp7035
(I1
(I5
tp7036
g2876
I00
S'\xe8b,4\xd6W?8\\\x03\xb58\x8e\xf6\x7f?0\x0eJ7'
p7037
tp7038
bag19
(g20
(I0
tp7039
g22
tp7040
Rp7041
(I1
(I5
tp7042
g2876
I00
S'\xf2\xbc_1\xf6\xff\x7f?[\xf5V1\x90\xd9\x175\x1do\xfd0'
p7043
tp7044
bag19
(g20
(I0
tp7045
g22
tp7046
Rp7047
(I1
(I5
tp7048
g2876
I00
S'\x19\x92%;\n~\xd3:>\x8c}?Z\x80\xa1;\xd9\xc7\x05:'
p7049
tp7050
bag19
(g20
(I0
tp7051
g22
tp7052
Rp7053
(I1
(I5
tp7054
g2876
I00
S'\x12j~?\xea\x00\x8d9\xe1S\x9e;\x06\xa5\xb69\x96GC:'
p7055
tp7056
bag19
(g20
(I0
tp7057
g22
tp7058
Rp7059
(I1
(I5
tp7060
g2876
I00
S'\xaa\xff\x7f?\x0f\x92\xd73\xfd\xa1\x926\xfde\xc83*\xae\xf54'
p7061
tp7062
bag19
(g20
(I0
tp7063
g22
tp7064
Rp7065
(I1
(I5
tp7066
g2876
I00
S'\x18\x9bU=\xf3b{=\\\x82\x1e>\xc2\xb8;=\xfc\x93/?'
p7067
tp7068
bag19
(g20
(I0
tp7069
g22
tp7070
Rp7071
(I1
(I5
tp7072
g2876
I00
S"\xf2)\xb76\x16\xc7'8p\x92\xa47\x1e\xf6j7\xd2\xfa\x7f?"
p7073
tp7074
bag19
(g20
(I0
tp7075
g22
tp7076
Rp7077
(I1
(I5
tp7078
g2876
I00
S'\xa3x\xb46\xac%/9Cd\x058\x8ekg8\x01\xef\x7f?'
p7079
tp7080
bag19
(g20
(I0
tp7081
g22
tp7082
Rp7083
(I1
(I5
tp7084
g2876
I00
S'\xe0\xf7\x7f?\x9d\x92t6L\xe9\xc78\xe2q"7\x18\r\x807'
p7085
tp7086
bag19
(g20
(I0
tp7087
g22
tp7088
Rp7089
(I1
(I5
tp7090
g2876
I00
S'\xce\xfdA:6\xa6\xc9:)\x08~?\xae\nA;\xa6z!;'
p7091
tp7092
bag19
(g20
(I0
tp7093
g22
tp7094
Rp7095
(I1
(I5
tp7096
g2876
I00
S'\x1a\x9b~7\xc5\x89\xcc7\xd2\xfa\x7f?|\xe2\x0c80\x91\xc26'
p7097
tp7098
batp7099
ba(lp7100
g15
(g16
(dp7101
g18
g19
(g20
(I0
tp7102
g22
tp7103
Rp7104
(I1
(I3
tp7105
g29
I00
(lp7106
g33
ag34
ag35
atp7107
bsg37
Nstp7108
Rp7109
a(dp7110
S'0.14.1'
p7111
(dp7112
S'axes'
p7113
g14
sS'blocks'
p7114
(lp7115
(dp7116
S'mgr_locs'
p7117
c__builtin__
slice
p7118
(I0
I3
I1
tp7119
Rp7120
sS'values'
p7121
g50
sasstp7122
bsb.